(dp0
S'trgs'
p1
ccollections
OrderedDict
p2
((lp3
(lp4
S'HLT_AK8PFJet360_TrimMass30_v16'
p5
a(I0
(I0
I0
I1
I1
I1
tp6
tp7
aa(lp8
S'HLT_AK8PFJet380_TrimMass30_v9'
p9
a(I1
(I0
I0
I1
I1
I1
tp10
tp11
aa(lp12
S'HLT_AK8PFJet400_TrimMass30_v10'
p13
a(I2
(I0
I1
I1
I1
I1
tp14
tp15
aa(lp16
S'HLT_AK8PFJet420_TrimMass30_v9'
p17
a(I3
(I0
I1
I1
I1
I1
tp18
tp19
aa(lp20
S'HLT_AK8PFHT750_TrimMass50_v10'
p21
a(I4
(I0
I0
I1
I1
I1
tp22
tp23
aa(lp24
S'HLT_AK8PFHT800_TrimMass50_v10'
p25
a(I5
(I0
I1
I1
I1
I1
tp26
tp27
aa(lp28
S'HLT_AK8PFHT850_TrimMass50_v9'
p29
a(I6
(I0
I1
I1
I1
I1
tp30
tp31
aa(lp32
S'HLT_AK8PFHT900_TrimMass50_v9'
p33
a(I7
(I0
I1
I1
I1
I1
tp34
tp35
aa(lp36
S'HLT_CaloJet500_NoJetID_v11'
p37
a(I8
(I0
I1
I1
I1
I1
tp38
tp39
aa(lp40
S'HLT_CaloJet550_NoJetID_v6'
p41
a(I9
(I0
I1
I1
I1
I1
tp42
tp43
aa(lp44
S'HLT_DoubleMu5_Upsilon_DoubleEle3_CaloIdL_TrackIdL_v2'
p45
a(I10
(I0
I1
I1
I1
I1
tp46
tp47
aa(lp48
S'HLT_DoubleMu3_DoubleEle7p5_CaloIdL_TrackIdL_Upsilon_v2'
p49
a(I11
(I0
I1
I1
I1
I1
tp50
tp51
aa(lp52
S'HLT_Trimuon5_3p5_2_Upsilon_Muon_v4'
p53
a(I12
(I0
I1
I1
I1
I1
tp54
tp55
aa(lp56
S'HLT_TrimuonOpen_5_3p5_2_Upsilon_Muon_v2'
p57
a(I13
(I0
I1
I1
I1
I1
tp58
tp59
aa(lp60
S'HLT_DoubleEle25_CaloIdL_MW_v2'
p61
a(I14
(I0
I1
I1
I1
I1
tp62
tp63
aa(lp64
S'HLT_DoubleEle27_CaloIdL_MW_v2'
p65
a(I15
(I0
I1
I1
I1
I1
tp66
tp67
aa(lp68
S'HLT_DoubleEle33_CaloIdL_MW_v15'
p69
a(I16
(I0
I1
I1
I1
I1
tp70
tp71
aa(lp72
S'HLT_DoubleEle24_eta2p1_WPTight_Gsf_v5'
p73
a(I17
(I0
I1
I1
I1
I1
tp74
tp75
aa(lp76
S'HLT_DoubleEle8_CaloIdM_TrackIdM_Mass8_DZ_PFHT350_v18'
p77
a(I18
(I0
I1
I1
I1
I1
tp78
tp79
aa(lp80
S'HLT_DoubleEle8_CaloIdM_TrackIdM_Mass8_PFHT350_v18'
p81
a(I19
(I0
I1
I1
I1
I1
tp82
tp83
aa(lp84
S'HLT_Ele27_Ele37_CaloIdL_MW_v2'
p85
a(I20
(I0
I1
I1
I1
I1
tp86
tp87
aa(lp88
S'HLT_Mu27_Ele37_CaloIdL_MW_v3'
p89
a(I21
(I0
I1
I1
I1
I1
tp90
tp91
aa(lp92
S'HLT_Mu37_Ele27_CaloIdL_MW_v3'
p93
a(I22
(I0
I1
I1
I1
I1
tp94
tp95
aa(lp96
S'HLT_Mu37_TkMu27_v3'
p97
a(I23
(I0
I1
I1
I1
I1
tp98
tp99
aa(lp100
S'HLT_DoubleMu4_3_Bs_v13'
p101
a(I24
(I0
I1
I1
I1
I1
tp102
tp103
aa(lp104
S'HLT_DoubleMu4_3_Jpsi_v1'
p105
a(I25
(I0
I10
I10
I10
I10
tp106
tp107
aa(lp108
S'HLT_DoubleMu4_JpsiTrk_Displaced_v14'
p109
a(I26
(I0
I1
I1
I1
I1
tp110
tp111
aa(lp112
S'HLT_DoubleMu4_LowMassNonResonantTrk_Displaced_v14'
p113
a(I27
(I0
I1
I1
I1
I1
tp114
tp115
aa(lp116
S'HLT_DoubleMu3_Trk_Tau3mu_v11'
p117
a(I28
(I0
I20
I20
I20
I20
tp118
tp119
aa(lp120
S'HLT_DoubleMu3_TkMu_DsTau3Mu_v2'
p121
a(I29
(I0
I1
I1
I1
I1
tp122
tp123
aa(lp124
S'HLT_DoubleMu4_PsiPrimeTrk_Displaced_v14'
p125
a(I30
(I0
I1
I1
I1
I1
tp126
tp127
aa(lp128
S'HLT_DoubleMu4_Mass8_DZ_PFHT350_v7'
p129
a(I31
(I0
I1
I1
I1
I1
tp130
tp131
aa(lp132
S'HLT_DoubleMu8_Mass8_PFHT350_v7'
p133
a(I32
(I0
I1
I1
I1
I1
tp134
tp135
aa(lp136
S'HLT_Mu3_PFJet40_v14'
p137
a(I33
(I0
I3
I3
I4
I6
tp138
tp139
aa(lp140
S'HLT_Mu7p5_L2Mu2_Jpsi_v9'
p141
a(I34
(I0
I1
I1
I1
I2
tp142
tp143
aa(lp144
S'HLT_Mu7p5_L2Mu2_Upsilon_v9'
p145
a(I35
(I0
I1
I2
I3
I3
tp146
tp147
aa(lp148
S'HLT_Mu7p5_Track2_Jpsi_v10'
p149
a(I36
(I0
I1
I1
I1
I1
tp150
tp151
aa(lp152
S'HLT_Mu7p5_Track3p5_Jpsi_v10'
p153
a(I37
(I0
I1
I1
I1
I1
tp154
tp155
aa(lp156
S'HLT_Mu7p5_Track7_Jpsi_v10'
p157
a(I38
(I0
I1
I1
I1
I1
tp158
tp159
aa(lp160
S'HLT_Mu7p5_Track2_Upsilon_v10'
p161
a(I39
(I0
I2
I2
I2
I2
tp162
tp163
aa(lp164
S'HLT_Mu7p5_Track3p5_Upsilon_v10'
p165
a(I40
(I0
I1
I1
I1
I1
tp166
tp167
aa(lp168
S'HLT_Mu7p5_Track7_Upsilon_v10'
p169
a(I41
(I0
I1
I1
I1
I1
tp170
tp171
aa(lp172
S'HLT_DoublePhoton33_CaloIdL_v5'
p173
a(I42
(I0
I60
I40
I30
I20
tp174
tp175
aa(lp176
S'HLT_DoublePhoton70_v5'
p177
a(I43
(I0
I1
I1
I1
I1
tp178
tp179
aa(lp180
S'HLT_DoublePhoton85_v13'
p181
a(I44
(I0
I1
I1
I1
I1
tp182
tp183
aa(lp184
S'HLT_Ele20_WPTight_Gsf_v4'
p185
a(I45
(I0
I0
I0
I0
I0
tp186
tp187
aa(lp188
S'HLT_Ele15_WPLoose_Gsf_v1'
p189
a(I46
(I0
I0
I0
I0
I0
tp190
tp191
aa(lp192
S'HLT_Ele17_WPLoose_Gsf_v1'
p193
a(I47
(I0
I0
I0
I0
I0
tp194
tp195
aa(lp196
S'HLT_Ele20_WPLoose_Gsf_v4'
p197
a(I48
(I0
I0
I0
I0
I0
tp198
tp199
aa(lp200
S'HLT_Ele20_eta2p1_WPLoose_Gsf_v4'
p201
a(I49
(I0
I0
I0
I0
I0
tp202
tp203
aa(lp204
S'HLT_DiEle27_WPTightCaloOnly_L1DoubleEG_v3'
p205
a(I50
(I0
I1
I1
I1
I1
tp206
tp207
aa(lp208
S'HLT_Ele27_WPTight_Gsf_v14'
p209
a(I51
(I0
I0
I1
I1
I1
tp210
tp211
aa(lp212
S'HLT_Ele32_WPTight_Gsf_v13'
p213
a(I52
(I0
I1
I1
I1
I1
tp214
tp215
aa(lp216
S'HLT_Ele35_WPTight_Gsf_v7'
p217
a(I53
(I0
I1
I1
I1
I1
tp218
tp219
aa(lp220
S'HLT_Ele35_WPTight_Gsf_L1EGMT_v3'
p221
a(I54
(I0
I1
I1
I1
I1
tp222
tp223
aa(lp224
S'HLT_Ele38_WPTight_Gsf_v7'
p225
a(I55
(I0
I1
I1
I1
I1
tp226
tp227
aa(lp228
S'HLT_Ele40_WPTight_Gsf_v7'
p229
a(I56
(I0
I1
I1
I1
I1
tp230
tp231
aa(lp232
S'HLT_Ele32_WPTight_Gsf_L1DoubleEG_v7'
p233
a(I57
(I0
I1
I1
I1
I1
tp234
tp235
aa(lp236
S'HLT_HT450_Beamspot_v9'
p237
a(I58
(I0
I0
I0
I0
I0
tp238
tp239
aa(lp240
S'HLT_HT300_Beamspot_v9'
p241
a(I59
(I35
I35
I8
I8
I8
tp242
tp243
aa(lp244
S'HLT_ZeroBias_Beamspot_v2'
p245
a(I60
(I100
I85
I98
I73
I49
tp246
tp247
aa(lp248
S'HLT_IsoMu20_eta2p1_LooseChargedIsoPFTau27_eta2p1_CrossL1_v10'
p249
a(I61
(I0
I1
I1
I1
I1
tp250
tp251
aa(lp252
S'HLT_IsoMu20_eta2p1_MediumChargedIsoPFTau27_eta2p1_CrossL1_v10'
p253
a(I62
(I0
I1
I1
I1
I1
tp254
tp255
aa(lp256
S'HLT_IsoMu20_eta2p1_TightChargedIsoPFTau27_eta2p1_CrossL1_v10'
p257
a(I63
(I0
I1
I1
I1
I1
tp258
tp259
aa(lp260
S'HLT_IsoMu20_eta2p1_LooseChargedIsoPFTau27_eta2p1_TightID_CrossL1_v10'
p261
a(I64
(I0
I1
I1
I1
I1
tp262
tp263
aa(lp264
S'HLT_IsoMu20_eta2p1_MediumChargedIsoPFTau27_eta2p1_TightID_CrossL1_v10'
p265
a(I65
(I0
I1
I1
I1
I1
tp266
tp267
aa(lp268
S'HLT_IsoMu20_eta2p1_TightChargedIsoPFTau27_eta2p1_TightID_CrossL1_v10'
p269
a(I66
(I0
I1
I1
I1
I1
tp270
tp271
aa(lp272
S'HLT_IsoMu20_v13'
p273
a(I67
(I0
I2
I3
I3
I4
tp274
tp275
aa(lp276
S'HLT_IsoMu24_v11'
p277
a(I68
(I0
I1
I1
I1
I1
tp278
tp279
aa(lp280
S'HLT_IsoMu24_eta2p1_v13'
p281
a(I69
(I0
I1
I1
I1
I1
tp282
tp283
aa(lp284
S'HLT_IsoMu27_v14'
p285
a(I70
(I0
I1
I1
I1
I1
tp286
tp287
aa(lp288
S'HLT_IsoMu30_v2'
p289
a(I71
(I0
I1
I1
I1
I1
tp290
tp291
aa(lp292
S'HLT_UncorrectedJetE30_NoBPTX_v5'
p293
a(I72
(I0
I1
I1
I1
I1
tp294
tp295
aa(lp296
S'HLT_UncorrectedJetE30_NoBPTX3BX_v5'
p297
a(I73
(I0
I1
I1
I1
I1
tp298
tp299
aa(lp300
S'HLT_UncorrectedJetE60_NoBPTX3BX_v5'
p301
a(I74
(I0
I1
I1
I1
I1
tp302
tp303
aa(lp304
S'HLT_UncorrectedJetE70_NoBPTX3BX_v5'
p305
a(I75
(I0
I1
I1
I1
I1
tp306
tp307
aa(lp308
S'HLT_L1SingleMu18_v3'
p309
a(I76
(I0
I117
I164
I176
I182
tp310
tp311
aa(lp312
S'HLT_L1SingleMu25_v2'
p313
a(I77
(I0
I12958
I8639
I6479
I4319
tp314
tp315
aa(lp316
S'HLT_L2Mu10_v7'
p317
a(I78
(I0
I5656
I3771
I2828
I1885
tp318
tp319
aa(lp320
S'HLT_L2Mu10_NoVertex_NoBPTX3BX_v5'
p321
a(I79
(I0
I700
I700
I700
I700
tp322
tp323
aa(lp324
S'HLT_L2Mu10_NoVertex_NoBPTX_v6'
p325
a(I80
(I0
I1
I1
I1
I1
tp326
tp327
aa(lp328
S'HLT_L2Mu45_NoVertex_3Sta_NoBPTX3BX_v4'
p329
a(I81
(I0
I1
I1
I1
I1
tp330
tp331
aa(lp332
S'HLT_L2Mu40_NoVertex_3Sta_NoBPTX3BX_v5'
p333
a(I82
(I0
I1
I1
I1
I1
tp334
tp335
aa(lp336
S'HLT_L2Mu50_v2'
p337
a(I83
(I0
I417
I278
I208
I139
tp338
tp339
aa(lp340
S'HLT_L2Mu23NoVtx_2Cha_v1'
p341
a(I84
(I0
I1
I1
I1
I1
tp342
tp343
aa(lp344
S'HLT_L2Mu23NoVtx_2Cha_CosmicSeed_v1'
p345
a(I85
(I0
I1
I1
I1
I1
tp346
tp347
aa(lp348
S'HLT_DoubleL2Mu30NoVtx_2Cha_CosmicSeed_Eta2p4_v1'
p349
a(I86
(I0
I0
I0
I0
I0
tp350
tp351
aa(lp352
S'HLT_DoubleL2Mu30NoVtx_2Cha_Eta2p4_v1'
p353
a(I87
(I0
I0
I0
I0
I0
tp354
tp355
aa(lp356
S'HLT_DoubleL2Mu50_v2'
p357
a(I88
(I0
I1
I1
I1
I1
tp358
tp359
aa(lp360
S'HLT_DoubleL2Mu23NoVtx_2Cha_CosmicSeed_v1'
p361
a(I89
(I0
I1
I1
I1
I1
tp362
tp363
aa(lp364
S'HLT_DoubleL2Mu25NoVtx_2Cha_CosmicSeed_v1'
p365
a(I90
(I0
I1
I1
I1
I1
tp366
tp367
aa(lp368
S'HLT_DoubleL2Mu25NoVtx_2Cha_CosmicSeed_Eta2p4_v1'
p369
a(I91
(I0
I0
I0
I0
I0
tp370
tp371
aa(lp372
S'HLT_DoubleL2Mu23NoVtx_2Cha_v1'
p373
a(I92
(I0
I1
I1
I1
I1
tp374
tp375
aa(lp376
S'HLT_DoubleL2Mu25NoVtx_2Cha_v1'
p377
a(I93
(I0
I1
I1
I1
I1
tp378
tp379
aa(lp380
S'HLT_DoubleL2Mu25NoVtx_2Cha_Eta2p4_v1'
p381
a(I94
(I0
I0
I0
I0
I0
tp382
tp383
aa(lp384
S'HLT_Mu17_TrkIsoVVL_Mu8_TrkIsoVVL_v13'
p385
a(I95
(I0
I25
I17
I13
I8
tp386
tp387
aa(lp388
S'HLT_Mu19_TrkIsoVVL_Mu9_TrkIsoVVL_v2'
p389
a(I96
(I0
I18
I12
I9
I6
tp390
tp391
aa(lp392
S'HLT_Mu17_TrkIsoVVL_Mu8_TrkIsoVVL_DZ_v14'
p393
a(I97
(I0
I22
I15
I11
I7
tp394
tp395
aa(lp396
S'HLT_Mu19_TrkIsoVVL_Mu9_TrkIsoVVL_DZ_v2'
p397
a(I98
(I0
I15
I10
I8
I5
tp398
tp399
aa(lp400
S'HLT_Mu17_TrkIsoVVL_Mu8_TrkIsoVVL_DZ_Mass8_v4'
p401
a(I99
(I0
I1
I1
I1
I1
tp402
tp403
aa(lp404
S'HLT_Mu19_TrkIsoVVL_Mu9_TrkIsoVVL_DZ_Mass8_v2'
p405
a(I100
(I0
I1
I1
I1
I1
tp406
tp407
aa(lp408
S'HLT_Mu17_TrkIsoVVL_Mu8_TrkIsoVVL_DZ_Mass3p8_v4'
p409
a(I101
(I0
I1
I1
I1
I1
tp410
tp411
aa(lp412
S'HLT_Mu19_TrkIsoVVL_Mu9_TrkIsoVVL_DZ_Mass3p8_v2'
p413
a(I102
(I0
I1
I1
I1
I1
tp414
tp415
aa(lp416
S'HLT_Mu25_TkMu0_Onia_v6'
p417
a(I103
(I0
I1
I1
I1
I1
tp418
tp419
aa(lp420
S'HLT_Mu30_TkMu0_Onia_v6'
p421
a(I104
(I0
I1
I1
I1
I1
tp422
tp423
aa(lp424
S'HLT_Mu20_TkMu0_Phi_v6'
p425
a(I105
(I0
I1
I1
I1
I1
tp426
tp427
aa(lp428
S'HLT_Mu25_TkMu0_Phi_v6'
p429
a(I106
(I0
I1
I1
I1
I1
tp430
tp431
aa(lp432
S'HLT_Mu12_v1'
p433
a(I107
(I0
I0
I0
I0
I0
tp434
tp435
aa(lp436
S'HLT_Mu15_v1'
p437
a(I108
(I0
I0
I0
I0
I0
tp438
tp439
aa(lp440
S'HLT_Mu20_v11'
p441
a(I109
(I0
I7
I9
I10
I10
tp442
tp443
aa(lp444
S'HLT_Mu27_v12'
p445
a(I110
(I0
I445
I296
I222
I148
tp446
tp447
aa(lp448
S'HLT_Mu50_v12'
p449
a(I111
(I0
I1
I1
I1
I1
tp450
tp451
aa(lp452
S'HLT_Mu55_v2'
p453
a(I112
(I0
I1
I1
I1
I1
tp454
tp455
aa(lp456
S'HLT_OldMu100_v3'
p457
a(I113
(I0
I1
I1
I1
I1
tp458
tp459
aa(lp460
S'HLT_TkMu100_v2'
p461
a(I114
(I0
I1
I1
I1
I1
tp462
tp463
aa(lp464
S'HLT_DiPFJet15_NoCaloMatched_v14'
p465
a(I115
(I0
I0
I0
I0
I0
tp466
tp467
aa(lp468
S'HLT_DiPFJet25_NoCaloMatched_v14'
p469
a(I116
(I0
I0
I0
I0
I0
tp470
tp471
aa(lp472
S'HLT_DiPFJet15_FBEta3_NoCaloMatched_v15'
p473
a(I117
(I0
I0
I0
I0
I0
tp474
tp475
aa(lp476
S'HLT_DiPFJet25_FBEta3_NoCaloMatched_v15'
p477
a(I118
(I0
I0
I0
I0
I0
tp478
tp479
aa(lp480
S'HLT_DiPFJetAve40_v12'
p481
a(I119
(I0
I41
I47
I35
I24
tp482
tp483
aa(lp484
S'HLT_DiPFJetAve60_v12'
p485
a(I120
(I0
I6
I6
I5
I3
tp486
tp487
aa(lp488
S'HLT_DiPFJetAve80_v11'
p489
a(I121
(I0
I13
I38
I40
I47
tp490
tp491
aa(lp492
S'HLT_DiPFJetAve140_v11'
p493
a(I122
(I0
I1
I3
I3
I3
tp494
tp495
aa(lp496
S'HLT_DiPFJetAve200_v11'
p497
a(I123
(I0
I1
I2
I2
I2
tp498
tp499
aa(lp500
S'HLT_DiPFJetAve260_v12'
p501
a(I124
(I0
I136
I91
I68
I45
tp502
tp503
aa(lp504
S'HLT_DiPFJetAve320_v12'
p505
a(I125
(I0
I52
I35
I26
I17
tp506
tp507
aa(lp508
S'HLT_DiPFJetAve400_v12'
p509
a(I126
(I0
I17
I12
I9
I6
tp510
tp511
aa(lp512
S'HLT_DiPFJetAve500_v12'
p513
a(I127
(I0
I6
I4
I3
I2
tp514
tp515
aa(lp516
S'HLT_DiPFJetAve15_HFJEC_v15'
p517
a(I128
(I0
I0
I0
I0
I0
tp518
tp519
aa(lp520
S'HLT_DiPFJetAve25_HFJEC_v15'
p521
a(I129
(I0
I0
I0
I0
I0
tp522
tp523
aa(lp524
S'HLT_DiPFJetAve35_HFJEC_v15'
p525
a(I130
(I0
I0
I0
I0
I0
tp526
tp527
aa(lp528
S'HLT_DiPFJetAve60_HFJEC_v13'
p529
a(I131
(I0
I1
I1
I1
I1
tp530
tp531
aa(lp532
S'HLT_DiPFJetAve80_HFJEC_v13'
p533
a(I132
(I0
I2
I6
I7
I8
tp534
tp535
aa(lp536
S'HLT_DiPFJetAve100_HFJEC_v13'
p537
a(I133
(I0
I1
I2
I2
I3
tp538
tp539
aa(lp540
S'HLT_DiPFJetAve160_HFJEC_v13'
p541
a(I134
(I0
I1
I1
I1
I1
tp542
tp543
aa(lp544
S'HLT_DiPFJetAve220_HFJEC_v14'
p545
a(I135
(I0
I10
I6
I5
I3
tp546
tp547
aa(lp548
S'HLT_DiPFJetAve300_HFJEC_v14'
p549
a(I136
(I0
I1
I1
I1
I1
tp550
tp551
aa(lp552
S'HLT_AK8PFJet15_v1'
p553
a(I137
(I0
I0
I0
I0
I0
tp554
tp555
aa(lp556
S'HLT_AK8PFJet25_v1'
p557
a(I138
(I0
I0
I0
I0
I0
tp558
tp559
aa(lp560
S'HLT_AK8PFJet40_v14'
p561
a(I139
(I0
I319
I368
I276
I184
tp562
tp563
aa(lp564
S'HLT_AK8PFJet60_v13'
p565
a(I140
(I0
I5
I15
I17
I20
tp566
tp567
aa(lp568
S'HLT_AK8PFJet80_v13'
p569
a(I141
(I0
I52
I147
I158
I184
tp570
tp571
aa(lp572
S'HLT_AK8PFJet140_v13'
p573
a(I142
(I0
I2
I5
I5
I5
tp574
tp575
aa(lp576
S'HLT_AK8PFJet200_v13'
p577
a(I143
(I0
I2
I3
I3
I3
tp578
tp579
aa(lp580
S'HLT_AK8PFJet260_v14'
p581
a(I144
(I0
I168
I112
I84
I56
tp582
tp583
aa(lp584
S'HLT_AK8PFJet320_v14'
p585
a(I145
(I0
I61
I40
I30
I20
tp586
tp587
aa(lp588
S'HLT_AK8PFJet400_v14'
p589
a(I146
(I0
I20
I13
I10
I7
tp590
tp591
aa(lp592
S'HLT_AK8PFJet450_v14'
p593
a(I147
(I0
I11
I7
I5
I4
tp594
tp595
aa(lp596
S'HLT_AK8PFJet500_v14'
p597
a(I148
(I0
I1
I1
I1
I1
tp598
tp599
aa(lp600
S'HLT_AK8PFJet550_v9'
p601
a(I149
(I0
I1
I1
I1
I1
tp602
tp603
aa(lp604
S'HLT_PFJet15_v1'
p605
a(I150
(I0
I0
I0
I0
I0
tp606
tp607
aa(lp608
S'HLT_PFJet25_v1'
p609
a(I151
(I0
I0
I0
I0
I0
tp610
tp611
aa(lp612
S'HLT_PFJet40_v19'
p613
a(I152
(I0
I25
I29
I22
I15
tp614
tp615
aa(lp616
S'HLT_PFJet60_v19'
p617
a(I153
(I0
I1
I2
I2
I2
tp618
tp619
aa(lp620
S'HLT_PFJet80_v18'
p621
a(I154
(I0
I15
I42
I45
I53
tp622
tp623
aa(lp624
S'HLT_PFJet140_v17'
p625
a(I155
(I0
I1
I3
I3
I3
tp626
tp627
aa(lp628
S'HLT_PFJet200_v17'
p629
a(I156
(I0
I1
I2
I2
I2
tp630
tp631
aa(lp632
S'HLT_PFJet260_v18'
p633
a(I157
(I0
I132
I88
I66
I44
tp634
tp635
aa(lp636
S'HLT_PFJet320_v18'
p637
a(I158
(I0
I49
I33
I25
I16
tp638
tp639
aa(lp640
S'HLT_PFJet400_v18'
p641
a(I159
(I0
I17
I11
I8
I6
tp642
tp643
aa(lp644
S'HLT_PFJet450_v19'
p645
a(I160
(I0
I9
I6
I4
I3
tp646
tp647
aa(lp648
S'HLT_PFJet500_v19'
p649
a(I161
(I0
I1
I1
I1
I1
tp650
tp651
aa(lp652
S'HLT_PFJet550_v9'
p653
a(I162
(I0
I1
I1
I1
I1
tp654
tp655
aa(lp656
S'HLT_PFJetFwd15_v1'
p657
a(I163
(I0
I0
I0
I0
I0
tp658
tp659
aa(lp660
S'HLT_PFJetFwd25_v1'
p661
a(I164
(I0
I0
I0
I0
I0
tp662
tp663
aa(lp664
S'HLT_PFJetFwd40_v17'
p665
a(I165
(I0
I62
I72
I54
I36
tp666
tp667
aa(lp668
S'HLT_PFJetFwd60_v17'
p669
a(I166
(I0
I1
I9
I13
I16
tp670
tp671
aa(lp672
S'HLT_PFJetFwd80_v16'
p673
a(I167
(I0
I3
I28
I33
I38
tp674
tp675
aa(lp676
S'HLT_PFJetFwd140_v16'
p677
a(I168
(I0
I3
I12
I14
I16
tp678
tp679
aa(lp680
S'HLT_PFJetFwd200_v16'
p681
a(I169
(I0
I2
I7
I9
I10
tp682
tp683
aa(lp684
S'HLT_PFJetFwd260_v17'
p685
a(I170
(I0
I15
I10
I8
I5
tp686
tp687
aa(lp688
S'HLT_PFJetFwd320_v17'
p689
a(I171
(I0
I4
I3
I2
I1
tp690
tp691
aa(lp692
S'HLT_PFJetFwd400_v17'
p693
a(I172
(I0
I1
I1
I1
I1
tp694
tp695
aa(lp696
S'HLT_PFJetFwd450_v17'
p697
a(I173
(I0
I1
I1
I1
I1
tp698
tp699
aa(lp700
S'HLT_PFJetFwd500_v17'
p701
a(I174
(I0
I1
I1
I1
I1
tp702
tp703
aa(lp704
S'HLT_AK8PFJetFwd15_v1'
p705
a(I175
(I0
I0
I0
I0
I0
tp706
tp707
aa(lp708
S'HLT_AK8PFJetFwd25_v1'
p709
a(I176
(I0
I0
I0
I0
I0
tp710
tp711
aa(lp712
S'HLT_AK8PFJetFwd40_v13'
p713
a(I177
(I0
I863
I996
I747
I498
tp714
tp715
aa(lp716
S'HLT_AK8PFJetFwd60_v12'
p717
a(I178
(I0
I11
I183
I268
I327
tp718
tp719
aa(lp720
S'HLT_AK8PFJetFwd80_v12'
p721
a(I179
(I0
I20
I182
I220
I250
tp722
tp723
aa(lp724
S'HLT_AK8PFJetFwd140_v12'
p725
a(I180
(I0
I8
I29
I32
I38
tp726
tp727
aa(lp728
S'HLT_AK8PFJetFwd200_v12'
p729
a(I181
(I0
I4
I12
I15
I17
tp730
tp731
aa(lp732
S'HLT_AK8PFJetFwd260_v13'
p733
a(I182
(I0
I23
I15
I11
I8
tp734
tp735
aa(lp736
S'HLT_AK8PFJetFwd320_v13'
p737
a(I183
(I0
I5
I4
I3
I2
tp738
tp739
aa(lp740
S'HLT_AK8PFJetFwd400_v13'
p741
a(I184
(I0
I1
I1
I1
I1
tp742
tp743
aa(lp744
S'HLT_AK8PFJetFwd450_v13'
p745
a(I185
(I0
I1
I1
I1
I1
tp746
tp747
aa(lp748
S'HLT_AK8PFJetFwd500_v13'
p749
a(I186
(I0
I1
I1
I1
I1
tp750
tp751
aa(lp752
S'HLT_PFHT180_v15'
p753
a(I187
(I0
I1
I7
I9
I10
tp754
tp755
aa(lp756
S'HLT_PFHT250_v15'
p757
a(I188
(I0
I1
I5
I6
I7
tp758
tp759
aa(lp760
S'HLT_PFHT370_v15'
p761
a(I189
(I0
I1
I4
I5
I5
tp762
tp763
aa(lp764
S'HLT_PFHT430_v15'
p765
a(I190
(I0
I1
I5
I5
I5
tp766
tp767
aa(lp768
S'HLT_PFHT510_v15'
p769
a(I191
(I0
I301
I201
I151
I100
tp770
tp771
aa(lp772
S'HLT_PFHT590_v15'
p773
a(I192
(I0
I159
I106
I79
I53
tp774
tp775
aa(lp776
S'HLT_PFHT680_v15'
p777
a(I193
(I0
I87
I58
I43
I29
tp778
tp779
aa(lp780
S'HLT_PFHT780_v15'
p781
a(I194
(I0
I46
I31
I23
I15
tp782
tp783
aa(lp784
S'HLT_PFHT890_v15'
p785
a(I195
(I0
I24
I16
I12
I8
tp786
tp787
aa(lp788
S'HLT_PFHT1050_v16'
p789
a(I196
(I0
I1
I1
I1
I1
tp790
tp791
aa(lp792
S'HLT_PFHT500_PFMET100_PFMHT100_IDTight_v10'
p793
a(I197
(I0
I1
I1
I1
I1
tp794
tp795
aa(lp796
S'HLT_PFHT500_PFMET110_PFMHT110_IDTight_v10'
p797
a(I198
(I0
I1
I1
I1
I1
tp798
tp799
aa(lp800
S'HLT_PFHT700_PFMET85_PFMHT85_IDTight_v10'
p801
a(I199
(I0
I1
I1
I1
I1
tp802
tp803
aa(lp804
S'HLT_PFHT700_PFMET95_PFMHT95_IDTight_v10'
p805
a(I200
(I0
I1
I1
I1
I1
tp806
tp807
aa(lp808
S'HLT_PFHT800_PFMET75_PFMHT75_IDTight_v10'
p809
a(I201
(I0
I1
I1
I1
I1
tp810
tp811
aa(lp812
S'HLT_PFHT800_PFMET85_PFMHT85_IDTight_v10'
p813
a(I202
(I0
I1
I1
I1
I1
tp814
tp815
aa(lp816
S'HLT_PFMET110_PFMHT110_IDTight_v18'
p817
a(I203
(I0
I246
I164
I123
I82
tp818
tp819
aa(lp820
S'HLT_PFMET120_PFMHT120_IDTight_v18'
p821
a(I204
(I0
I1
I1
I1
I1
tp822
tp823
aa(lp824
S'HLT_PFMET130_PFMHT130_IDTight_v18'
p825
a(I205
(I0
I1
I1
I1
I1
tp826
tp827
aa(lp828
S'HLT_PFMET140_PFMHT140_IDTight_v18'
p829
a(I206
(I0
I1
I1
I1
I1
tp830
tp831
aa(lp832
S'HLT_PFMET100_PFMHT100_IDTight_CaloBTagCSV_3p1_v7'
p833
a(I207
(I0
I0
I1
I1
I1
tp834
tp835
aa(lp836
S'HLT_PFMET110_PFMHT110_IDTight_CaloBTagCSV_3p1_v7'
p837
a(I208
(I0
I1
I1
I1
I1
tp838
tp839
aa(lp840
S'HLT_PFMET120_PFMHT120_IDTight_CaloBTagCSV_3p1_v7'
p841
a(I209
(I0
I1
I1
I1
I1
tp842
tp843
aa(lp844
S'HLT_PFMET130_PFMHT130_IDTight_CaloBTagCSV_3p1_v7'
p845
a(I210
(I0
I1
I1
I1
I1
tp846
tp847
aa(lp848
S'HLT_PFMET140_PFMHT140_IDTight_CaloBTagCSV_3p1_v7'
p849
a(I211
(I0
I1
I1
I1
I1
tp850
tp851
aa(lp852
S'HLT_PFMET120_PFMHT120_IDTight_PFHT60_v7'
p853
a(I212
(I0
I1
I1
I1
I1
tp854
tp855
aa(lp856
S'HLT_PFMETNoMu120_PFMHTNoMu120_IDTight_PFHT60_v7'
p857
a(I213
(I0
I1
I1
I1
I1
tp858
tp859
aa(lp860
S'HLT_PFMETTypeOne120_PFMHT120_IDTight_PFHT60_v7'
p861
a(I214
(I0
I1
I1
I1
I1
tp862
tp863
aa(lp864
S'HLT_PFMETTypeOne110_PFMHT110_IDTight_v10'
p865
a(I215
(I0
I356
I237
I178
I119
tp866
tp867
aa(lp868
S'HLT_PFMETTypeOne120_PFMHT120_IDTight_v10'
p869
a(I216
(I0
I1
I1
I1
I1
tp870
tp871
aa(lp872
S'HLT_PFMETTypeOne130_PFMHT130_IDTight_v10'
p873
a(I217
(I0
I1
I1
I1
I1
tp874
tp875
aa(lp876
S'HLT_PFMETTypeOne140_PFMHT140_IDTight_v9'
p877
a(I218
(I0
I1
I1
I1
I1
tp878
tp879
aa(lp880
S'HLT_PFMETNoMu110_PFMHTNoMu110_IDTight_v18'
p881
a(I219
(I0
I330
I220
I165
I110
tp882
tp883
aa(lp884
S'HLT_PFMETNoMu120_PFMHTNoMu120_IDTight_v18'
p885
a(I220
(I0
I1
I1
I1
I1
tp886
tp887
aa(lp888
S'HLT_PFMETNoMu130_PFMHTNoMu130_IDTight_v17'
p889
a(I221
(I0
I1
I1
I1
I1
tp890
tp891
aa(lp892
S'HLT_PFMETNoMu140_PFMHTNoMu140_IDTight_v17'
p893
a(I222
(I0
I1
I1
I1
I1
tp894
tp895
aa(lp896
S'HLT_MonoCentralPFJet80_PFMETNoMu110_PFMHTNoMu110_IDTight_v18'
p897
a(I223
(I0
I36
I24
I18
I12
tp898
tp899
aa(lp900
S'HLT_MonoCentralPFJet80_PFMETNoMu120_PFMHTNoMu120_IDTight_v18'
p901
a(I224
(I0
I1
I1
I1
I1
tp902
tp903
aa(lp904
S'HLT_MonoCentralPFJet80_PFMETNoMu130_PFMHTNoMu130_IDTight_v17'
p905
a(I225
(I0
I1
I1
I1
I1
tp906
tp907
aa(lp908
S'HLT_MonoCentralPFJet80_PFMETNoMu140_PFMHTNoMu140_IDTight_v17'
p909
a(I226
(I0
I1
I1
I1
I1
tp910
tp911
aa(lp912
S'HLT_L1ETMHadSeeds_v1'
p913
a(I227
(I0
I9918
I6612
I4959
I3306
tp914
tp915
aa(lp916
S'HLT_CaloMHT90_v3'
p917
a(I228
(I0
I2963
I1976
I1482
I988
tp918
tp919
aa(lp920
S'HLT_CaloMET80_NotCleaned_v3'
p921
a(I229
(I0
I2039
I1359
I1019
I680
tp922
tp923
aa(lp924
S'HLT_CaloMET90_NotCleaned_v3'
p925
a(I230
(I0
I1421
I947
I711
I474
tp926
tp927
aa(lp928
S'HLT_CaloMET100_NotCleaned_v3'
p929
a(I231
(I0
I795
I530
I398
I265
tp930
tp931
aa(lp932
S'HLT_CaloMET110_NotCleaned_v3'
p933
a(I232
(I0
I443
I295
I221
I148
tp934
tp935
aa(lp936
S'HLT_CaloMET250_NotCleaned_v3'
p937
a(I233
(I0
I19
I13
I10
I6
tp938
tp939
aa(lp940
S'HLT_CaloMET70_HBHECleaned_v3'
p941
a(I234
(I0
I1734
I1156
I867
I578
tp942
tp943
aa(lp944
S'HLT_CaloMET80_HBHECleaned_v3'
p945
a(I235
(I0
I1210
I807
I605
I403
tp946
tp947
aa(lp948
S'HLT_CaloMET90_HBHECleaned_v3'
p949
a(I236
(I0
I889
I593
I445
I296
tp950
tp951
aa(lp952
S'HLT_CaloMET100_HBHECleaned_v3'
p953
a(I237
(I0
I412
I275
I206
I137
tp954
tp955
aa(lp956
S'HLT_CaloMET250_HBHECleaned_v3'
p957
a(I238
(I0
I10
I6
I5
I3
tp958
tp959
aa(lp960
S'HLT_CaloMET300_HBHECleaned_v3'
p961
a(I239
(I0
I5
I3
I3
I2
tp962
tp963
aa(lp964
S'HLT_CaloMET350_HBHECleaned_v3'
p965
a(I240
(I0
I1
I1
I1
I1
tp966
tp967
aa(lp968
S'HLT_PFMET200_NotCleaned_v7'
p969
a(I241
(I0
I43
I29
I22
I14
tp970
tp971
aa(lp972
S'HLT_PFMET200_HBHECleaned_v7'
p973
a(I242
(I0
I22
I15
I11
I7
tp974
tp975
aa(lp976
S'HLT_PFMET250_HBHECleaned_v7'
p977
a(I243
(I0
I1
I1
I1
I1
tp978
tp979
aa(lp980
S'HLT_PFMET300_HBHECleaned_v7'
p981
a(I244
(I0
I1
I1
I1
I1
tp982
tp983
aa(lp984
S'HLT_PFMET200_HBHE_BeamHaloCleaned_v7'
p985
a(I245
(I0
I1
I1
I1
I1
tp986
tp987
aa(lp988
S'HLT_PFMETTypeOne200_HBHE_BeamHaloCleaned_v7'
p989
a(I246
(I0
I1
I1
I1
I1
tp990
tp991
aa(lp992
S'HLT_MET105_IsoTrk50_v8'
p993
a(I247
(I0
I1
I1
I1
I1
tp994
tp995
aa(lp996
S'HLT_MET120_IsoTrk50_v8'
p997
a(I248
(I0
I1
I1
I1
I1
tp998
tp999
aa(lp1000
S'HLT_SingleJet30_Mu12_SinglePFJet40_v9'
p1001
a(I249
(I0
I7
I9
I9
I9
tp1002
tp1003
aa(lp1004
S'HLT_Mu12_DoublePFJets40_CaloBTagCSV_p79_v1'
p1005
a(I250
(I0
I1
I1
I1
I1
tp1006
tp1007
aa(lp1008
S'HLT_Mu12_DoublePFJets100_CaloBTagCSV_p79_v1'
p1009
a(I251
(I0
I1
I1
I1
I1
tp1010
tp1011
aa(lp1012
S'HLT_Mu12_DoublePFJets200_CaloBTagCSV_p79_v1'
p1013
a(I252
(I0
I3
I2
I2
I1
tp1014
tp1015
aa(lp1016
S'HLT_Mu12_DoublePFJets350_CaloBTagCSV_p79_v1'
p1017
a(I253
(I0
I1
I1
I1
I1
tp1018
tp1019
aa(lp1020
S'HLT_Mu12_DoublePFJets40MaxDeta1p6_DoubleCaloBTagCSV_p79_v1'
p1021
a(I254
(I0
I1
I1
I1
I1
tp1022
tp1023
aa(lp1024
S'HLT_Mu12_DoublePFJets54MaxDeta1p6_DoubleCaloBTagCSV_p79_v1'
p1025
a(I255
(I0
I1
I1
I1
I1
tp1026
tp1027
aa(lp1028
S'HLT_Mu12_DoublePFJets62MaxDeta1p6_DoubleCaloBTagCSV_p79_v1'
p1029
a(I256
(I0
I1
I1
I1
I1
tp1030
tp1031
aa(lp1032
S'HLT_DoublePFJets40_CaloBTagCSV_p79_v1'
p1033
a(I257
(I0
I1
I9
I11
I12
tp1034
tp1035
aa(lp1036
S'HLT_DoublePFJets100_CaloBTagCSV_p79_v1'
p1037
a(I258
(I0
I2
I226
I169
I113
tp1038
tp1039
aa(lp1040
S'HLT_DoublePFJets200_CaloBTagCSV_p79_v1'
p1041
a(I259
(I0
I25
I12
I9
I6
tp1042
tp1043
aa(lp1044
S'HLT_DoublePFJets350_CaloBTagCSV_p79_v1'
p1045
a(I260
(I0
I1
I6
I5
I3
tp1046
tp1047
aa(lp1048
S'HLT_DoublePFJets116MaxDeta1p6_DoubleCaloBTagCSV_p79_v1'
p1049
a(I261
(I0
I1
I1
I1
I1
tp1050
tp1051
aa(lp1052
S'HLT_DoublePFJets128MaxDeta1p6_DoubleCaloBTagCSV_p79_v1'
p1053
a(I262
(I0
I1
I1
I1
I1
tp1054
tp1055
aa(lp1056
S'HLT_Photon300_NoHE_v11'
p1057
a(I263
(I0
I1
I1
I1
I1
tp1058
tp1059
aa(lp1060
S'HLT_Mu8_TrkIsoVVL_v11'
p1061
a(I264
(I0
I36
I51
I51
I51
tp1062
tp1063
aa(lp1064
S'HLT_Mu8_DiEle12_CaloIdL_TrackIdL_DZ_v16'
p1065
a(I265
(I0
I1
I1
I1
I1
tp1066
tp1067
aa(lp1068
S'HLT_Mu8_DiEle12_CaloIdL_TrackIdL_v16'
p1069
a(I266
(I0
I1
I1
I1
I1
tp1070
tp1071
aa(lp1072
S'HLT_Mu8_Ele8_CaloIdM_TrackIdM_Mass8_PFHT350_DZ_v17'
p1073
a(I267
(I0
I1
I1
I1
I1
tp1074
tp1075
aa(lp1076
S'HLT_Mu8_Ele8_CaloIdM_TrackIdM_Mass8_PFHT350_v17'
p1077
a(I268
(I0
I3
I2
I2
I1
tp1078
tp1079
aa(lp1080
S'HLT_Mu8_TrkIsoVVL_Ele23_CaloIdL_TrackIdL_IsoVL_DZ_v11'
p1081
a(I269
(I0
I1
I1
I1
I1
tp1082
tp1083
aa(lp1084
S'HLT_Mu8_TrkIsoVVL_Ele23_CaloIdL_TrackIdL_IsoVL_v9'
p1085
a(I270
(I0
I18
I12
I9
I6
tp1086
tp1087
aa(lp1088
S'HLT_Mu17_TrkIsoVVL_v11'
p1089
a(I271
(I0
I1
I1
I1
I1
tp1090
tp1091
aa(lp1092
S'HLT_Mu19_TrkIsoVVL_v2'
p1093
a(I272
(I0
I1
I1
I1
I1
tp1094
tp1095
aa(lp1096
S'HLT_BTagMu_AK4DiJet20_Mu5_v11'
p1097
a(I273
(I0
I6
I8
I8
I8
tp1098
tp1099
aa(lp1100
S'HLT_BTagMu_AK4DiJet40_Mu5_v11'
p1101
a(I274
(I0
I1
I1
I1
I1
tp1102
tp1103
aa(lp1104
S'HLT_BTagMu_AK4DiJet70_Mu5_v11'
p1105
a(I275
(I0
I1
I2
I2
I2
tp1106
tp1107
aa(lp1108
S'HLT_BTagMu_AK4DiJet110_Mu5_v11'
p1109
a(I276
(I0
I1
I1
I1
I1
tp1110
tp1111
aa(lp1112
S'HLT_BTagMu_AK4DiJet170_Mu5_v10'
p1113
a(I277
(I0
I4
I3
I2
I1
tp1114
tp1115
aa(lp1116
S'HLT_BTagMu_AK4Jet300_Mu5_v11'
p1117
a(I278
(I0
I1
I1
I1
I1
tp1118
tp1119
aa(lp1120
S'HLT_BTagMu_AK8DiJet170_Mu5_v7'
p1121
a(I279
(I0
I5
I3
I3
I2
tp1122
tp1123
aa(lp1124
S'HLT_BTagMu_AK8Jet300_Mu5_v11'
p1125
a(I280
(I0
I1
I1
I1
I1
tp1126
tp1127
aa(lp1128
S'HLT_Ele15_Ele8_CaloIdL_TrackIdL_IsoVL_v1'
p1129
a(I281
(I0
I0
I0
I0
I0
tp1130
tp1131
aa(lp1132
S'HLT_Ele23_Ele12_CaloIdL_TrackIdL_IsoVL_DZ_v17'
p1133
a(I282
(I0
I1
I1
I1
I1
tp1134
tp1135
aa(lp1136
S'HLT_Ele23_Ele12_CaloIdL_TrackIdL_IsoVL_v17'
p1137
a(I283
(I0
I1
I1
I1
I1
tp1138
tp1139
aa(lp1140
S'HLT_Mu23_TrkIsoVVL_Ele12_CaloIdL_TrackIdL_IsoVL_DZ_v13'
p1141
a(I284
(I0
I1
I1
I1
I1
tp1142
tp1143
aa(lp1144
S'HLT_Mu23_TrkIsoVVL_Ele12_CaloIdL_TrackIdL_IsoVL_v5'
p1145
a(I285
(I0
I1
I1
I1
I1
tp1146
tp1147
aa(lp1148
S'HLT_Mu12_TrkIsoVVL_Ele23_CaloIdL_TrackIdL_IsoVL_v5'
p1149
a(I286
(I0
I16
I10
I8
I5
tp1150
tp1151
aa(lp1152
S'HLT_Mu12_TrkIsoVVL_Ele23_CaloIdL_TrackIdL_IsoVL_DZ_v13'
p1153
a(I287
(I0
I1
I1
I1
I1
tp1154
tp1155
aa(lp1156
S'HLT_Mu12_DoublePhoton20_v3'
p1157
a(I288
(I0
I1
I1
I1
I1
tp1158
tp1159
aa(lp1160
S'HLT_TriplePhoton_20_20_20_CaloIdLV2_v2'
p1161
a(I289
(I0
I1
I1
I1
I1
tp1162
tp1163
aa(lp1164
S'HLT_TriplePhoton_20_20_20_CaloIdLV2_R9IdVL_v2'
p1165
a(I290
(I0
I1
I1
I1
I1
tp1166
tp1167
aa(lp1168
S'HLT_TriplePhoton_30_30_10_CaloIdLV2_v3'
p1169
a(I291
(I0
I1
I1
I1
I1
tp1170
tp1171
aa(lp1172
S'HLT_TriplePhoton_30_30_10_CaloIdLV2_R9IdVL_v3'
p1173
a(I292
(I0
I1
I1
I1
I1
tp1174
tp1175
aa(lp1176
S'HLT_TriplePhoton_35_35_5_CaloIdLV2_R9IdVL_v3'
p1177
a(I293
(I0
I1
I1
I1
I1
tp1178
tp1179
aa(lp1180
S'HLT_Photon20_v1'
p1181
a(I294
(I0
I0
I0
I0
I0
tp1182
tp1183
aa(lp1184
S'HLT_Photon33_v4'
p1185
a(I295
(I0
I38
I65
I65
I67
tp1186
tp1187
aa(lp1188
S'HLT_Photon50_v12'
p1189
a(I296
(I0
I6211
I4140
I3105
I2070
tp1190
tp1191
aa(lp1192
S'HLT_Photon75_v12'
p1193
a(I297
(I0
I736
I491
I368
I245
tp1194
tp1195
aa(lp1196
S'HLT_Photon90_v12'
p1197
a(I298
(I0
I766
I510
I383
I255
tp1198
tp1199
aa(lp1200
S'HLT_Photon120_v12'
p1201
a(I299
(I0
I147
I98
I74
I49
tp1202
tp1203
aa(lp1204
S'HLT_Photon150_v5'
p1205
a(I300
(I0
I125
I83
I62
I42
tp1206
tp1207
aa(lp1208
S'HLT_Photon175_v13'
p1209
a(I301
(I0
I63
I42
I31
I21
tp1210
tp1211
aa(lp1212
S'HLT_Photon200_v12'
p1213
a(I302
(I0
I1
I1
I1
I1
tp1214
tp1215
aa(lp1216
S'HLT_Photon50_R9Id90_HE10_IsoM_v13'
p1217
a(I303
(I0
I259
I172
I129
I86
tp1218
tp1219
aa(lp1220
S'HLT_Photon75_R9Id90_HE10_IsoM_v13'
p1221
a(I304
(I0
I62
I41
I31
I21
tp1222
tp1223
aa(lp1224
S'HLT_Photon75_R9Id90_HE10_IsoM_EBOnly_CaloMJJ300_PFJetsMJJ400DEta3_v3'
p1225
a(I305
(I0
I1
I1
I1
I1
tp1226
tp1227
aa(lp1228
S'HLT_Photon75_R9Id90_HE10_IsoM_EBOnly_CaloMJJ400_PFJetsMJJ600DEta3_v3'
p1229
a(I306
(I0
I1
I1
I1
I1
tp1230
tp1231
aa(lp1232
S'HLT_Photon90_R9Id90_HE10_IsoM_v13'
p1233
a(I307
(I0
I31
I21
I15
I10
tp1234
tp1235
aa(lp1236
S'HLT_Photon120_R9Id90_HE10_IsoM_v13'
p1237
a(I308
(I0
I10
I7
I5
I3
tp1238
tp1239
aa(lp1240
S'HLT_Photon165_R9Id90_HE10_IsoM_v14'
p1241
a(I309
(I0
I1
I1
I1
I1
tp1242
tp1243
aa(lp1244
S'HLT_Diphoton30_22_R9Id_OR_IsoCaloId_AND_HE_R9Id_Mass90_v12'
p1245
a(I310
(I0
I1
I1
I1
I1
tp1246
tp1247
aa(lp1248
S'HLT_Diphoton30_22_R9Id_OR_IsoCaloId_AND_HE_R9Id_Mass95_v12'
p1249
a(I311
(I0
I1
I1
I1
I1
tp1250
tp1251
aa(lp1252
S'HLT_Diphoton30PV_18PV_R9Id_AND_IsoCaloId_AND_HE_R9Id_PixelVeto_Mass55_v13'
p1253
a(I312
(I0
I1
I1
I1
I1
tp1254
tp1255
aa(lp1256
S'HLT_Diphoton30PV_18PV_R9Id_AND_IsoCaloId_AND_HE_R9Id_NoPixelVeto_Mass55_v12'
p1257
a(I313
(I0
I27
I18
I14
I9
tp1258
tp1259
aa(lp1260
S'HLT_Diphoton30EB_18EB_R9Id_OR_IsoCaloId_AND_HE_R9Id_NoPixelVeto_Mass55_v12'
p1261
a(I314
(I0
I131
I88
I66
I44
tp1262
tp1263
aa(lp1264
S'HLT_Diphoton30EB_18EB_R9Id_OR_IsoCaloId_AND_HE_R9Id_PixelVeto_Mass55_v13'
p1265
a(I315
(I0
I85
I56
I42
I28
tp1266
tp1267
aa(lp1268
S'HLT_Dimuon0_Jpsi_L1_NoOS_v6'
p1269
a(I316
(I0
I5
I8
I10
I12
tp1270
tp1271
aa(lp1272
S'HLT_Dimuon0_Jpsi_NoVertexing_NoOS_v6'
p1273
a(I317
(I0
I7
I11
I13
I16
tp1274
tp1275
aa(lp1276
S'HLT_Dimuon0_Jpsi_v7'
p1277
a(I318
(I0
I5
I4
I5
I6
tp1278
tp1279
aa(lp1280
S'HLT_Dimuon0_Jpsi_NoVertexing_v7'
p1281
a(I319
(I0
I12
I4
I4
I5
tp1282
tp1283
aa(lp1284
S'HLT_Dimuon0_Jpsi_L1_4R_0er1p5R_v6'
p1285
a(I320
(I0
I269
I179
I134
I90
tp1286
tp1287
aa(lp1288
S'HLT_Dimuon0_Jpsi_NoVertexing_L1_4R_0er1p5R_v6'
p1289
a(I321
(I0
I305
I203
I152
I102
tp1290
tp1291
aa(lp1292
S'HLT_Dimuon0_Jpsi3p5_Muon2_v5'
p1293
a(I322
(I0
I1
I1
I1
I1
tp1294
tp1295
aa(lp1296
S'HLT_Dimuon0_Upsilon_L1_4p5_v7'
p1297
a(I323
(I0
I5
I1
I2
I2
tp1298
tp1299
aa(lp1300
S'HLT_Dimuon0_Upsilon_L1_5_v7'
p1301
a(I324
(I0
I3
I1
I1
I1
tp1302
tp1303
aa(lp1304
S'HLT_Dimuon0_Upsilon_L1_4p5NoOS_v6'
p1305
a(I325
(I0
I2
I6
I7
I8
tp1306
tp1307
aa(lp1308
S'HLT_Dimuon0_Upsilon_L1_4p5er2p0_v7'
p1309
a(I326
(I0
I3
I2
I2
I2
tp1310
tp1311
aa(lp1312
S'HLT_Dimuon0_Upsilon_L1_4p5er2p0M_v6'
p1313
a(I327
(I0
I154
I32
I24
I16
tp1314
tp1315
aa(lp1316
S'HLT_Dimuon0_Upsilon_NoVertexing_v6'
p1317
a(I328
(I0
I131
I87
I66
I44
tp1318
tp1319
aa(lp1320
S'HLT_Dimuon0_Upsilon_L1_5M_v6'
p1321
a(I329
(I0
I368
I27
I20
I14
tp1322
tp1323
aa(lp1324
S'HLT_Dimuon0_LowMass_L1_0er1p5R_v6'
p1325
a(I330
(I0
I1684
I94
I70
I47
tp1326
tp1327
aa(lp1328
S'HLT_Dimuon0_LowMass_L1_0er1p5_v7'
p1329
a(I331
(I0
I4
I2
I2
I2
tp1330
tp1331
aa(lp1332
S'HLT_Dimuon0_LowMass_v7'
p1333
a(I332
(I0
I19
I3
I4
I4
tp1334
tp1335
aa(lp1336
S'HLT_Dimuon0_LowMass_L1_4_v7'
p1337
a(I333
(I0
I7
I2
I2
I2
tp1338
tp1339
aa(lp1340
S'HLT_Dimuon0_LowMass_L1_4R_v6'
p1341
a(I334
(I0
I2911
I162
I121
I81
tp1342
tp1343
aa(lp1344
S'HLT_Dimuon0_LowMass_L1_TM530_v5'
p1345
a(I335
(I0
I32
I12
I21
I42
tp1346
tp1347
aa(lp1348
S'HLT_Dimuon0_Upsilon_Muon_L1_TM0_v5'
p1349
a(I336
(I0
I1
I1
I1
I1
tp1350
tp1351
aa(lp1352
S'HLT_Dimuon0_Upsilon_Muon_NoL1Mass_v5'
p1353
a(I337
(I0
I1
I1
I2
I2
tp1354
tp1355
aa(lp1356
S'HLT_TripleMu_5_3_3_Mass3p8to60_DZ_v7'
p1357
a(I338
(I0
I1
I1
I1
I1
tp1358
tp1359
aa(lp1360
S'HLT_TripleMu_10_5_5_DZ_v9'
p1361
a(I339
(I0
I1
I1
I1
I1
tp1362
tp1363
aa(lp1364
S'HLT_TripleMu_12_10_5_v9'
p1365
a(I340
(I0
I1
I1
I1
I1
tp1366
tp1367
aa(lp1368
S'HLT_Tau3Mu_Mu7_Mu1_TkMu1_Tau15_v2'
p1369
a(I341
(I0
I14
I9
I7
I5
tp1370
tp1371
aa(lp1372
S'HLT_Tau3Mu_Mu7_Mu1_TkMu1_Tau15_Charge1_v2'
p1373
a(I342
(I0
I15
I10
I7
I5
tp1374
tp1375
aa(lp1376
S'HLT_Tau3Mu_Mu7_Mu1_TkMu1_IsoTau15_v2'
p1377
a(I343
(I0
I1
I1
I1
I1
tp1378
tp1379
aa(lp1380
S'HLT_Tau3Mu_Mu7_Mu1_TkMu1_IsoTau15_Charge1_v2'
p1381
a(I344
(I0
I1
I1
I1
I1
tp1382
tp1383
aa(lp1384
S'HLT_DoubleMu3_DZ_PFMET50_PFMHT60_v8'
p1385
a(I345
(I0
I1
I1
I1
I1
tp1386
tp1387
aa(lp1388
S'HLT_DoubleMu3_DZ_PFMET70_PFMHT70_v8'
p1389
a(I346
(I0
I1
I1
I1
I1
tp1390
tp1391
aa(lp1392
S'HLT_DoubleMu3_DZ_PFMET90_PFMHT90_v8'
p1393
a(I347
(I0
I1
I1
I1
I1
tp1394
tp1395
aa(lp1396
S'HLT_DoubleMu3_Trk_Tau3mu_NoL1Mass_v5'
p1397
a(I348
(I0
I1
I1
I1
I1
tp1398
tp1399
aa(lp1400
S'HLT_DoubleMu4_Jpsi_Displaced_v6'
p1401
a(I349
(I0
I43
I28
I21
I14
tp1402
tp1403
aa(lp1404
S'HLT_DoubleMu4_Jpsi_NoVertexing_v6'
p1405
a(I350
(I0
I191
I127
I95
I64
tp1406
tp1407
aa(lp1408
S'HLT_DoubleMu4_JpsiTrkTrk_Displaced_v6'
p1409
a(I351
(I0
I1
I1
I1
I1
tp1410
tp1411
aa(lp1412
S'HLT_DoubleMu43NoFiltersNoVtx_v3'
p1413
a(I352
(I0
I1
I1
I1
I1
tp1414
tp1415
aa(lp1416
S'HLT_DoubleMu48NoFiltersNoVtx_v3'
p1417
a(I353
(I0
I1
I1
I1
I1
tp1418
tp1419
aa(lp1420
S'HLT_Mu43NoFiltersNoVtx_Photon43_CaloIdL_v4'
p1421
a(I354
(I0
I1
I1
I1
I1
tp1422
tp1423
aa(lp1424
S'HLT_Mu48NoFiltersNoVtx_Photon48_CaloIdL_v4'
p1425
a(I355
(I0
I1
I1
I1
I1
tp1426
tp1427
aa(lp1428
S'HLT_DoubleMu20_7_Mass0to30_L1_DM4_v6'
p1429
a(I356
(I0
I1
I1
I1
I1
tp1430
tp1431
aa(lp1432
S'HLT_DoubleMu20_7_Mass0to30_L1_DM4EG_v6'
p1433
a(I357
(I0
I6
I4
I3
I2
tp1434
tp1435
aa(lp1436
S'HLT_HT425_v8'
p1437
a(I358
(I0
I544
I363
I272
I181
tp1438
tp1439
aa(lp1440
S'HLT_HT430_DisplacedDijet40_DisplacedTrack_v11'
p1441
a(I359
(I0
I1
I1
I1
I1
tp1442
tp1443
aa(lp1444
S'HLT_HT500_DisplacedDijet40_DisplacedTrack_v11'
p1445
a(I360
(I0
I1
I1
I1
I1
tp1446
tp1447
aa(lp1448
S'HLT_HT430_DisplacedDijet60_DisplacedTrack_v11'
p1449
a(I361
(I0
I1
I1
I1
I1
tp1450
tp1451
aa(lp1452
S'HLT_HT400_DisplacedDijet40_DisplacedTrack_v11'
p1453
a(I362
(I0
I0
I0
I0
I0
tp1454
tp1455
aa(lp1456
S'HLT_HT650_DisplacedDijet60_Inclusive_v11'
p1457
a(I363
(I0
I1
I1
I1
I1
tp1458
tp1459
aa(lp1460
S'HLT_HT550_DisplacedDijet60_Inclusive_v11'
p1461
a(I364
(I0
I0
I0
I0
I0
tp1462
tp1463
aa(lp1464
S'HLT_DiJet110_35_Mjj650_PFMET110_v7'
p1465
a(I365
(I0
I1
I1
I1
I1
tp1466
tp1467
aa(lp1468
S'HLT_DiJet110_35_Mjj650_PFMET120_v7'
p1469
a(I366
(I0
I1
I1
I1
I1
tp1470
tp1471
aa(lp1472
S'HLT_DiJet110_35_Mjj650_PFMET130_v7'
p1473
a(I367
(I0
I1
I1
I1
I1
tp1474
tp1475
aa(lp1476
S'HLT_TripleJet110_35_35_Mjj650_PFMET110_v7'
p1477
a(I368
(I0
I1
I1
I1
I1
tp1478
tp1479
aa(lp1480
S'HLT_TripleJet110_35_35_Mjj650_PFMET120_v7'
p1481
a(I369
(I0
I1
I1
I1
I1
tp1482
tp1483
aa(lp1484
S'HLT_TripleJet110_35_35_Mjj650_PFMET130_v7'
p1485
a(I370
(I0
I1
I1
I1
I1
tp1486
tp1487
aa(lp1488
S'HLT_VBF_DoubleLooseChargedIsoPFTau20_Trk1_eta2p1_v1'
p1489
a(I371
(I0
I1
I1
I1
I1
tp1490
tp1491
aa(lp1492
S'HLT_VBF_DoubleMediumChargedIsoPFTau20_Trk1_eta2p1_v1'
p1493
a(I372
(I0
I1
I1
I1
I1
tp1494
tp1495
aa(lp1496
S'HLT_VBF_DoubleTightChargedIsoPFTau20_Trk1_eta2p1_v1'
p1497
a(I373
(I0
I1
I1
I1
I1
tp1498
tp1499
aa(lp1500
S'HLT_Ele30_eta2p1_WPTight_Gsf_CentralPFJet35_EleCleaned_v11'
p1501
a(I374
(I0
I1
I1
I1
I1
tp1502
tp1503
aa(lp1504
S'HLT_Ele28_eta2p1_WPTight_Gsf_HT150_v11'
p1505
a(I375
(I0
I1
I1
I1
I1
tp1506
tp1507
aa(lp1508
S'HLT_Ele28_HighEta_SC20_Mass55_v11'
p1509
a(I376
(I0
I1
I1
I1
I1
tp1510
tp1511
aa(lp1512
S'HLT_DoubleMu20_7_Mass0to30_Photon23_v6'
p1513
a(I377
(I0
I1
I1
I1
I1
tp1514
tp1515
aa(lp1516
S'HLT_Ele15_IsoVVVL_PFHT450_CaloBTagCSV_4p5_v7'
p1517
a(I378
(I0
I1
I1
I1
I1
tp1518
tp1519
aa(lp1520
S'HLT_Ele15_IsoVVVL_PFHT450_PFMET50_v14'
p1521
a(I379
(I0
I1
I1
I1
I1
tp1522
tp1523
aa(lp1524
S'HLT_Ele15_IsoVVVL_PFHT450_v14'
p1525
a(I380
(I0
I1
I1
I1
I1
tp1526
tp1527
aa(lp1528
S'HLT_Ele50_IsoVVVL_PFHT450_v14'
p1529
a(I381
(I0
I1
I1
I1
I1
tp1530
tp1531
aa(lp1532
S'HLT_Ele15_IsoVVVL_PFHT600_v18'
p1533
a(I382
(I0
I1
I1
I1
I1
tp1534
tp1535
aa(lp1536
S'HLT_Mu8_TrkIsoVVL_DiPFJet40_DEta3p5_MJJ750_HTT300_PFMETNoMu60_v13'
p1537
a(I383
(I0
I1
I1
I1
I1
tp1538
tp1539
aa(lp1540
S'HLT_Mu10_TrkIsoVVL_DiPFJet40_DEta3p5_MJJ750_HTT350_PFMETNoMu60_v12'
p1541
a(I384
(I0
I1
I1
I1
I1
tp1542
tp1543
aa(lp1544
S'HLT_Mu15_IsoVVVL_PFHT450_CaloBTagCSV_4p5_v7'
p1545
a(I385
(I0
I1
I1
I1
I1
tp1546
tp1547
aa(lp1548
S'HLT_Mu15_IsoVVVL_PFHT450_PFMET50_v13'
p1549
a(I386
(I0
I1
I1
I1
I1
tp1550
tp1551
aa(lp1552
S'HLT_Mu15_IsoVVVL_PFHT450_v13'
p1553
a(I387
(I0
I1
I1
I1
I1
tp1554
tp1555
aa(lp1556
S'HLT_Mu50_IsoVVVL_PFHT450_v13'
p1557
a(I388
(I0
I1
I1
I1
I1
tp1558
tp1559
aa(lp1560
S'HLT_Mu15_IsoVVVL_PFHT600_v17'
p1561
a(I389
(I0
I1
I1
I1
I1
tp1562
tp1563
aa(lp1564
S'HLT_Dimuon10_PsiPrime_Barrel_Seagulls_v6'
p1565
a(I390
(I0
I1
I1
I1
I1
tp1566
tp1567
aa(lp1568
S'HLT_Dimuon20_Jpsi_Barrel_Seagulls_v6'
p1569
a(I391
(I0
I1
I1
I1
I1
tp1570
tp1571
aa(lp1572
S'HLT_Dimuon10_Upsilon_Barrel_Seagulls_v6'
p1573
a(I392
(I0
I1
I1
I1
I1
tp1574
tp1575
aa(lp1576
S'HLT_Dimuon12_Upsilon_eta1p5_v13'
p1577
a(I393
(I0
I1
I1
I1
I1
tp1578
tp1579
aa(lp1580
S'HLT_Dimuon14_Phi_Barrel_Seagulls_v6'
p1581
a(I394
(I0
I1
I1
I1
I1
tp1582
tp1583
aa(lp1584
S'HLT_Dimuon18_PsiPrime_v13'
p1585
a(I395
(I0
I1
I1
I1
I1
tp1586
tp1587
aa(lp1588
S'HLT_Dimuon25_Jpsi_v13'
p1589
a(I396
(I0
I1
I1
I1
I1
tp1590
tp1591
aa(lp1592
S'HLT_Dimuon18_PsiPrime_noCorrL1_v4'
p1593
a(I397
(I0
I1
I1
I1
I1
tp1594
tp1595
aa(lp1596
S'HLT_Dimuon24_Upsilon_noCorrL1_v4'
p1597
a(I398
(I0
I1
I1
I1
I1
tp1598
tp1599
aa(lp1600
S'HLT_Dimuon24_Phi_noCorrL1_v4'
p1601
a(I399
(I0
I1
I1
I1
I1
tp1602
tp1603
aa(lp1604
S'HLT_Dimuon25_Jpsi_noCorrL1_v4'
p1605
a(I400
(I0
I1
I1
I1
I1
tp1606
tp1607
aa(lp1608
S'HLT_DiMu9_Ele9_CaloIdL_TrackIdL_DZ_v15'
p1609
a(I401
(I0
I1
I1
I1
I1
tp1610
tp1611
aa(lp1612
S'HLT_DiMu9_Ele9_CaloIdL_TrackIdL_v15'
p1613
a(I402
(I0
I2
I1
I1
I1
tp1614
tp1615
aa(lp1616
S'HLT_DoubleIsoMu20_eta2p1_v5'
p1617
a(I403
(I0
I1
I1
I1
I1
tp1618
tp1619
aa(lp1620
S'HLT_DoubleIsoMu24_eta2p1_v5'
p1621
a(I404
(I0
I1
I1
I1
I1
tp1622
tp1623
aa(lp1624
S'HLT_TrkMu12_DoubleTrkMu5NoFiltersNoVtx_v5'
p1625
a(I405
(I0
I1
I1
I1
I1
tp1626
tp1627
aa(lp1628
S'HLT_TrkMu16_DoubleTrkMu6NoFiltersNoVtx_v11'
p1629
a(I406
(I0
I1
I1
I1
I1
tp1630
tp1631
aa(lp1632
S'HLT_TrkMu17_DoubleTrkMu8NoFiltersNoVtx_v12'
p1633
a(I407
(I0
I1
I1
I1
I1
tp1634
tp1635
aa(lp1636
S'HLT_Mu8_v11'
p1637
a(I408
(I0
I39
I54
I54
I54
tp1638
tp1639
aa(lp1640
S'HLT_Mu17_v11'
p1641
a(I409
(I0
I1
I1
I1
I1
tp1642
tp1643
aa(lp1644
S'HLT_Mu19_v2'
p1645
a(I410
(I0
I1
I1
I1
I1
tp1646
tp1647
aa(lp1648
S'HLT_Mu17_Photon30_IsoCaloId_v4'
p1649
a(I411
(I0
I1
I1
I1
I1
tp1650
tp1651
aa(lp1652
S'HLT_Ele8_CaloIdL_TrackIdL_IsoVL_PFJet30_v14'
p1653
a(I412
(I0
I1
I4
I4
I4
tp1654
tp1655
aa(lp1656
S'HLT_Ele12_CaloIdL_TrackIdL_IsoVL_PFJet30_v16'
p1657
a(I413
(I0
I1
I16
I17
I16
tp1658
tp1659
aa(lp1660
S'HLT_Ele15_CaloIdL_TrackIdL_IsoVL_PFJet30_v1'
p1661
a(I414
(I0
I0
I0
I0
I0
tp1662
tp1663
aa(lp1664
S'HLT_Ele23_CaloIdL_TrackIdL_IsoVL_PFJet30_v16'
p1665
a(I415
(I0
I1
I5
I5
I5
tp1666
tp1667
aa(lp1668
S'HLT_Ele8_CaloIdM_TrackIdM_PFJet30_v16'
p1669
a(I416
(I0
I1
I5
I5
I5
tp1670
tp1671
aa(lp1672
S'HLT_Ele17_CaloIdM_TrackIdM_PFJet30_v14'
p1673
a(I417
(I0
I1
I11
I11
I11
tp1674
tp1675
aa(lp1676
S'HLT_Ele23_CaloIdM_TrackIdM_PFJet30_v16'
p1677
a(I418
(I0
I1
I8
I8
I8
tp1678
tp1679
aa(lp1680
S'HLT_Ele50_CaloIdVT_GsfTrkIdT_PFJet165_v16'
p1681
a(I419
(I0
I1
I1
I1
I1
tp1682
tp1683
aa(lp1684
S'HLT_Ele115_CaloIdVT_GsfTrkIdT_v12'
p1685
a(I420
(I0
I1
I1
I1
I1
tp1686
tp1687
aa(lp1688
S'HLT_Ele135_CaloIdVT_GsfTrkIdT_v5'
p1689
a(I421
(I0
I1
I1
I1
I1
tp1690
tp1691
aa(lp1692
S'HLT_Ele145_CaloIdVT_GsfTrkIdT_v6'
p1693
a(I422
(I0
I1
I1
I1
I1
tp1694
tp1695
aa(lp1696
S'HLT_Ele200_CaloIdVT_GsfTrkIdT_v6'
p1697
a(I423
(I0
I1
I1
I1
I1
tp1698
tp1699
aa(lp1700
S'HLT_Ele250_CaloIdVT_GsfTrkIdT_v11'
p1701
a(I424
(I0
I1
I1
I1
I1
tp1702
tp1703
aa(lp1704
S'HLT_Ele300_CaloIdVT_GsfTrkIdT_v11'
p1705
a(I425
(I0
I1
I1
I1
I1
tp1706
tp1707
aa(lp1708
S'HLT_PFHT330PT30_QuadPFJet_75_60_45_40_TriplePFBTagDeepCSV_4p5_v1'
p1709
a(I426
(I0
I1
I1
I1
I1
tp1710
tp1711
aa(lp1712
S'HLT_PFHT330PT30_QuadPFJet_75_60_45_40_v7'
p1713
a(I427
(I0
I210
I210
I210
I210
tp1714
tp1715
aa(lp1716
S'HLT_PFHT380_SixPFJet32_DoublePFBTagCSV_2p2_v7'
p1717
a(I428
(I0
I1
I1
I1
I1
tp1718
tp1719
aa(lp1720
S'HLT_PFHT380_SixPFJet32_DoublePFBTagDeepCSV_2p2_v6'
p1721
a(I429
(I0
I1
I1
I1
I1
tp1722
tp1723
aa(lp1724
S'HLT_PFHT380_SixPFJet32_v7'
p1725
a(I430
(I0
I32
I21
I16
I11
tp1726
tp1727
aa(lp1728
S'HLT_PFHT430_SixPFJet40_PFBTagCSV_1p5_v7'
p1729
a(I431
(I0
I1
I1
I1
I1
tp1730
tp1731
aa(lp1732
S'HLT_PFHT430_SixPFJet40_v9'
p1733
a(I432
(I0
I15
I10
I8
I5
tp1734
tp1735
aa(lp1736
S'HLT_PFHT350_v17'
p1737
a(I433
(I0
I363
I242
I182
I121
tp1738
tp1739
aa(lp1740
S'HLT_PFHT350MinPFJet15_v7'
p1741
a(I434
(I0
I4541
I3027
I2270
I1514
tp1742
tp1743
aa(lp1744
S'HLT_Photon60_R9Id90_CaloIdL_IsoL_v4'
p1745
a(I435
(I0
I158
I105
I79
I53
tp1746
tp1747
aa(lp1748
S'HLT_Photon60_R9Id90_CaloIdL_IsoL_DisplacedIdL_v4'
p1749
a(I436
(I0
I121
I80
I60
I40
tp1750
tp1751
aa(lp1752
S'HLT_Photon60_R9Id90_CaloIdL_IsoL_DisplacedIdL_PFHT350MinPFJet15_v9'
p1753
a(I437
(I0
I1
I1
I1
I1
tp1754
tp1755
aa(lp1756
S'HLT_FullTrack_Multiplicity85_v3'
p1757
a(I438
(I0
I0
I0
I0
I0
tp1758
tp1759
aa(lp1760
S'HLT_FullTrack_Multiplicity100_v2'
p1761
a(I439
(I0
I0
I0
I0
I0
tp1762
tp1763
aa(lp1764
S'HLT_FullTrack_Multiplicity130_v2'
p1765
a(I440
(I0
I0
I0
I0
I0
tp1766
tp1767
aa(lp1768
S'HLT_FullTrack_Multiplicity155_v3'
p1769
a(I441
(I0
I0
I0
I0
I0
tp1770
tp1771
aa(lp1772
S'HLT_ECALHT800_v9'
p1773
a(I442
(I0
I1
I1
I1
I1
tp1774
tp1775
aa(lp1776
S'HLT_DiSC30_18_EIso_AND_HE_Mass70_v12'
p1777
a(I443
(I0
I166
I111
I83
I55
tp1778
tp1779
aa(lp1780
S'HLT_Physics_v7'
p1781
a(I444
(I25
I50
I75
I70
I50
tp1782
tp1783
aa(lp1784
S'HLT_Physics_part0_v7'
p1785
a(I445
(I0
I0
I0
I0
I0
tp1786
tp1787
aa(lp1788
S'HLT_Physics_part1_v7'
p1789
a(I446
(I0
I0
I0
I0
I0
tp1790
tp1791
aa(lp1792
S'HLT_Physics_part2_v7'
p1793
a(I447
(I0
I0
I0
I0
I0
tp1794
tp1795
aa(lp1796
S'HLT_Physics_part3_v7'
p1797
a(I448
(I0
I0
I0
I0
I0
tp1798
tp1799
aa(lp1800
S'HLT_Physics_part4_v7'
p1801
a(I449
(I0
I0
I0
I0
I0
tp1802
tp1803
aa(lp1804
S'HLT_Physics_part5_v7'
p1805
a(I450
(I0
I0
I0
I0
I0
tp1806
tp1807
aa(lp1808
S'HLT_Physics_part6_v7'
p1809
a(I451
(I0
I0
I0
I0
I0
tp1810
tp1811
aa(lp1812
S'HLT_Physics_part7_v7'
p1813
a(I452
(I0
I0
I0
I0
I0
tp1814
tp1815
aa(lp1816
S'DST_Physics_v7'
p1817
a(I453
(I10
I10
I10
I10
I10
tp1818
tp1819
aa(lp1820
S'HLT_Random_v3'
p1821
a(I454
(I60
I60
I60
I60
I60
tp1822
tp1823
aa(lp1824
S'HLT_ZeroBias_v6'
p1825
a(I455
(I42
I720
I720
I720
I720
tp1826
tp1827
aa(lp1828
S'HLT_ZeroBias_part0_v6'
p1829
a(I456
(I0
I0
I0
I0
I0
tp1830
tp1831
aa(lp1832
S'HLT_ZeroBias_part1_v6'
p1833
a(I457
(I0
I0
I0
I0
I0
tp1834
tp1835
aa(lp1836
S'HLT_ZeroBias_part2_v6'
p1837
a(I458
(I0
I0
I0
I0
I0
tp1838
tp1839
aa(lp1840
S'HLT_ZeroBias_part3_v6'
p1841
a(I459
(I0
I0
I0
I0
I0
tp1842
tp1843
aa(lp1844
S'HLT_ZeroBias_part4_v6'
p1845
a(I460
(I0
I0
I0
I0
I0
tp1846
tp1847
aa(lp1848
S'HLT_ZeroBias_part5_v6'
p1849
a(I461
(I0
I0
I0
I0
I0
tp1850
tp1851
aa(lp1852
S'HLT_ZeroBias_part6_v6'
p1853
a(I462
(I0
I0
I0
I0
I0
tp1854
tp1855
aa(lp1856
S'HLT_ZeroBias_part7_v6'
p1857
a(I463
(I0
I0
I0
I0
I0
tp1858
tp1859
aa(lp1860
S'DST_HT250_CaloScouting_v9'
p1861
a(I464
(I0
I1
I1
I1
I1
tp1862
tp1863
aa(lp1864
S'DST_HT250_CaloBTagScouting_v8'
p1865
a(I465
(I0
I1
I1
I1
I1
tp1866
tp1867
aa(lp1868
S'DST_HT410_PFScouting_v14'
p1869
a(I466
(I0
I1
I1
I1
I1
tp1870
tp1871
aa(lp1872
S'DST_HT410_BTagScouting_v14'
p1873
a(I467
(I0
I1
I1
I1
I1
tp1874
tp1875
aa(lp1876
S'DST_ZeroBias_BTagScouting_v13'
p1877
a(I468
(I0
I175
I150
I113
I75
tp1878
tp1879
aa(lp1880
S'DST_ZeroBias_CaloScouting_PFScouting_v12'
p1881
a(I469
(I0
I175
I150
I113
I75
tp1882
tp1883
aa(lp1884
S'DST_CaloJet40_BTagScouting_v13'
p1885
a(I470
(I0
I6
I5
I4
I3
tp1886
tp1887
aa(lp1888
S'DST_CaloJet40_CaloScouting_PFScouting_v13'
p1889
a(I471
(I0
I6
I5
I4
I3
tp1890
tp1891
aa(lp1892
S'DST_CaloJet40_CaloBTagScouting_v12'
p1893
a(I472
(I0
I3
I3
I2
I3
tp1894
tp1895
aa(lp1896
S'DST_L1HTT_BTagScouting_v13'
p1897
a(I473
(I0
I200
I100
I75
I50
tp1898
tp1899
aa(lp1900
S'DST_L1HTT_CaloScouting_PFScouting_v13'
p1901
a(I474
(I0
I200
I100
I75
I50
tp1902
tp1903
aa(lp1904
S'DST_L1HTT_CaloBTagScouting_v12'
p1905
a(I475
(I0
I200
I100
I75
I50
tp1906
tp1907
aa(lp1908
S'DST_L1DoubleMu_BTagScouting_v14'
p1909
a(I476
(I0
I0
I0
I0
I0
tp1910
tp1911
aa(lp1912
S'DST_L1DoubleMu_CaloScouting_PFScouting_v13'
p1913
a(I477
(I0
I0
I0
I0
I0
tp1914
tp1915
aa(lp1916
S'DST_DoubleMu3_noVtx_CaloScouting_Monitoring_v5'
p1917
a(I478
(I0
I1
I1
I1
I1
tp1918
tp1919
aa(lp1920
S'DST_DoubleMu3_noVtx_CaloScouting_v5'
p1921
a(I479
(I0
I1
I1
I1
I1
tp1922
tp1923
aa(lp1924
S'DST_DoubleMu1_noVtx_CaloScouting_v1'
p1925
a(I480
(I0
I1
I1
I1
I1
tp1926
tp1927
aa(lp1928
S'DST_DoubleMu3_noVtx_Mass10_PFScouting_v1'
p1929
a(I481
(I0
I1
I1
I1
I1
tp1930
tp1931
aa(lp1932
S'HLT_AK4CaloJet30_v11'
p1933
a(I482
(I0
I0
I0
I0
I0
tp1934
tp1935
aa(lp1936
S'HLT_AK4CaloJet40_v10'
p1937
a(I483
(I0
I0
I0
I0
I0
tp1938
tp1939
aa(lp1940
S'HLT_AK4CaloJet50_v10'
p1941
a(I484
(I0
I0
I0
I0
I0
tp1942
tp1943
aa(lp1944
S'HLT_AK4CaloJet80_v10'
p1945
a(I485
(I0
I0
I0
I0
I0
tp1946
tp1947
aa(lp1948
S'HLT_AK4CaloJet100_v10'
p1949
a(I486
(I0
I0
I0
I0
I0
tp1950
tp1951
aa(lp1952
S'HLT_AK4CaloJet120_v9'
p1953
a(I487
(I0
I0
I0
I0
I0
tp1954
tp1955
aa(lp1956
S'HLT_AK4PFJet30_v17'
p1957
a(I488
(I0
I0
I0
I0
I0
tp1958
tp1959
aa(lp1960
S'HLT_AK4PFJet50_v17'
p1961
a(I489
(I0
I0
I0
I0
I0
tp1962
tp1963
aa(lp1964
S'HLT_AK4PFJet80_v17'
p1965
a(I490
(I0
I0
I0
I0
I0
tp1966
tp1967
aa(lp1968
S'HLT_AK4PFJet100_v17'
p1969
a(I491
(I0
I0
I0
I0
I0
tp1970
tp1971
aa(lp1972
S'HLT_AK4PFJet120_v16'
p1973
a(I492
(I0
I0
I0
I0
I0
tp1974
tp1975
aa(lp1976
S'HLT_SinglePhoton10_Eta3p1ForPPRef_v8'
p1977
a(I493
(I0
I0
I0
I0
I0
tp1978
tp1979
aa(lp1980
S'HLT_SinglePhoton20_Eta3p1ForPPRef_v8'
p1981
a(I494
(I0
I0
I0
I0
I0
tp1982
tp1983
aa(lp1984
S'HLT_SinglePhoton30_Eta3p1ForPPRef_v8'
p1985
a(I495
(I0
I0
I0
I0
I0
tp1986
tp1987
aa(lp1988
S'HLT_Photon20_HoverELoose_v9'
p1989
a(I496
(I0
I3
I84
I82
I84
tp1990
tp1991
aa(lp1992
S'HLT_Photon30_HoverELoose_v9'
p1993
a(I497
(I0
I1
I17
I17
I17
tp1994
tp1995
aa(lp1996
S'HLT_L1UnpairedBunchBptxMinus_v2'
p1997
a(I498
(I0
I0
I0
I0
I0
tp1998
tp1999
aa(lp2000
S'HLT_L1UnpairedBunchBptxPlus_v2'
p2001
a(I499
(I0
I0
I0
I0
I0
tp2002
tp2003
aa(lp2004
S'HLT_L1NotBptxOR_v3'
p2005
a(I500
(I0
I0
I0
I0
I0
tp2006
tp2007
aa(lp2008
S'HLT_L1MinimumBiasHF_OR_v2'
p2009
a(I501
(I0
I0
I0
I0
I0
tp2010
tp2011
aa(lp2012
S'HLT_L1MinimumBiasHF0OR_v3'
p2013
a(I502
(I0
I0
I0
I0
I0
tp2014
tp2015
aa(lp2016
S'HLT_L1_CDC_SingleMu_3_er1p2_TOP120_DPHI2p618_3p142_v2'
p2017
a(I503
(I0
I2
I1
I1
I1
tp2018
tp2019
aa(lp2020
S'HLT_ZeroBias_IsolatedBunches_v5'
p2021
a(I504
(I10
I10
I10
I10
I10
tp2022
tp2023
aa(lp2024
S'AlCa_RPCMuonNormalisation_v13'
p2025
a(I505
(I12
I20
I10
I7
I5
tp2026
tp2027
aa(lp2028
S'AlCa_LumiPixels_ZeroBias_v8'
p2029
a(I506
(I1
I10
I10
I10
I10
tp2030
tp2031
aa(lp2032
S'AlCa_EcalPi0EBonly_v12'
p2033
a(I507
(I2
I1
I1
I1
I1
tp2034
tp2035
aa(lp2036
S'HLT_Ele24_eta2p1_WPTight_Gsf_LooseChargedIsoPFTau30_eta2p1_CrossL1_v11'
p2037
a(I508
(I0
I1
I1
I1
I1
tp2038
tp2039
aa(lp2040
S'HLT_Ele24_eta2p1_WPTight_Gsf_MediumChargedIsoPFTau30_eta2p1_CrossL1_v11'
p2041
a(I509
(I0
I1
I1
I1
I1
tp2042
tp2043
aa(lp2044
S'HLT_Ele24_eta2p1_WPTight_Gsf_TightChargedIsoPFTau30_eta2p1_CrossL1_v11'
p2045
a(I510
(I0
I1
I1
I1
I1
tp2046
tp2047
aa(lp2048
S'HLT_Ele24_eta2p1_WPTight_Gsf_LooseChargedIsoPFTau30_eta2p1_TightID_CrossL1_v11'
p2049
a(I511
(I0
I1
I1
I1
I1
tp2050
tp2051
aa(lp2052
S'HLT_Ele24_eta2p1_WPTight_Gsf_MediumChargedIsoPFTau30_eta2p1_TightID_CrossL1_v11'
p2053
a(I512
(I0
I1
I1
I1
I1
tp2054
tp2055
aa(lp2056
S'HLT_Ele24_eta2p1_WPTight_Gsf_TightChargedIsoPFTau30_eta2p1_TightID_CrossL1_v11'
p2057
a(I513
(I0
I1
I1
I1
I1
tp2058
tp2059
aa(lp2060
S'HLT_DoubleMediumChargedIsoPFTau35_Trk1_eta2p1_Reg_v10'
p2061
a(I514
(I0
I0
I1
I1
I1
tp2062
tp2063
aa(lp2064
S'HLT_DoubleMediumChargedIsoPFTau40_Trk1_eta2p1_Reg_v10'
p2065
a(I515
(I0
I0
I1
I1
I1
tp2066
tp2067
aa(lp2068
S'HLT_DoubleTightChargedIsoPFTau35_Trk1_eta2p1_Reg_v10'
p2069
a(I516
(I0
I0
I1
I1
I1
tp2070
tp2071
aa(lp2072
S'HLT_DoubleTightChargedIsoPFTau40_Trk1_eta2p1_Reg_v10'
p2073
a(I517
(I0
I1
I1
I1
I1
tp2074
tp2075
aa(lp2076
S'HLT_DoubleMediumChargedIsoPFTau35_Trk1_TightID_eta2p1_Reg_v10'
p2077
a(I518
(I0
I0
I1
I1
I1
tp2078
tp2079
aa(lp2080
S'HLT_DoubleMediumChargedIsoPFTau40_Trk1_TightID_eta2p1_Reg_v10'
p2081
a(I519
(I0
I1
I1
I1
I1
tp2082
tp2083
aa(lp2084
S'HLT_DoubleTightChargedIsoPFTau35_Trk1_TightID_eta2p1_Reg_v10'
p2085
a(I520
(I0
I1
I1
I1
I1
tp2086
tp2087
aa(lp2088
S'HLT_DoubleTightChargedIsoPFTau40_Trk1_TightID_eta2p1_Reg_v10'
p2089
a(I521
(I0
I1
I1
I1
I1
tp2090
tp2091
aa(lp2092
S'HLT_IsoMu24_eta2p1_MediumChargedIsoPFTau50_Trk30_eta2p1_1pr_v10'
p2093
a(I522
(I0
I1
I1
I1
I1
tp2094
tp2095
aa(lp2096
S'HLT_MediumChargedIsoPFTau50_Trk30_eta2p1_1pr_MET90_v10'
p2097
a(I523
(I0
I1
I1
I1
I1
tp2098
tp2099
aa(lp2100
S'HLT_MediumChargedIsoPFTau50_Trk30_eta2p1_1pr_MET100_v10'
p2101
a(I524
(I0
I1
I1
I1
I1
tp2102
tp2103
aa(lp2104
S'HLT_MediumChargedIsoPFTau50_Trk30_eta2p1_1pr_MET110_v6'
p2105
a(I525
(I0
I1
I1
I1
I1
tp2106
tp2107
aa(lp2108
S'HLT_MediumChargedIsoPFTau50_Trk30_eta2p1_1pr_MET120_v6'
p2109
a(I526
(I0
I1
I1
I1
I1
tp2110
tp2111
aa(lp2112
S'HLT_MediumChargedIsoPFTau50_Trk30_eta2p1_1pr_MET130_v6'
p2113
a(I527
(I0
I1
I1
I1
I1
tp2114
tp2115
aa(lp2116
S'HLT_MediumChargedIsoPFTau50_Trk30_eta2p1_1pr_MET140_v1'
p2117
a(I528
(I0
I1
I1
I1
I1
tp2118
tp2119
aa(lp2120
S'HLT_MediumChargedIsoPFTau50_Trk30_eta2p1_1pr_v10'
p2121
a(I529
(I0
I1
I1
I1
I1
tp2122
tp2123
aa(lp2124
S'HLT_MediumChargedIsoPFTau180HighPtRelaxedIso_Trk50_eta2p1_1pr_v9'
p2125
a(I530
(I0
I1
I1
I1
I1
tp2126
tp2127
aa(lp2128
S'HLT_MediumChargedIsoPFTau180HighPtRelaxedIso_Trk50_eta2p1_v10'
p2129
a(I531
(I0
I1
I1
I1
I1
tp2130
tp2131
aa(lp2132
S'HLT_MediumChargedIsoPFTau200HighPtRelaxedIso_Trk50_eta2p1_v10'
p2133
a(I532
(I0
I1
I1
I1
I1
tp2134
tp2135
aa(lp2136
S'HLT_MediumChargedIsoPFTau220HighPtRelaxedIso_Trk50_eta2p1_v10'
p2137
a(I533
(I0
I1
I1
I1
I1
tp2138
tp2139
aa(lp2140
S'HLT_IsoMu24_eta2p1_MediumChargedIsoPFTau35_Trk1_eta2p1_Reg_CrossL1_v10'
p2141
a(I534
(I0
I1
I1
I1
I1
tp2142
tp2143
aa(lp2144
S'HLT_IsoMu24_eta2p1_MediumChargedIsoPFTau35_Trk1_TightID_eta2p1_Reg_CrossL1_v10'
p2145
a(I535
(I0
I1
I1
I1
I1
tp2146
tp2147
aa(lp2148
S'HLT_IsoMu24_eta2p1_TightChargedIsoPFTau35_Trk1_eta2p1_Reg_CrossL1_v10'
p2149
a(I536
(I0
I1
I1
I1
I1
tp2150
tp2151
aa(lp2152
S'HLT_IsoMu24_eta2p1_TightChargedIsoPFTau35_Trk1_TightID_eta2p1_Reg_CrossL1_v10'
p2153
a(I537
(I0
I1
I1
I1
I1
tp2154
tp2155
aa(lp2156
S'HLT_Ele16_Ele12_Ele8_CaloIdL_TrackIdL_v7'
p2157
a(I538
(I0
I1
I1
I1
I1
tp2158
tp2159
aa(lp2160
S'HLT_Rsq0p35_v13'
p2161
a(I539
(I0
I1
I1
I1
I1
tp2162
tp2163
aa(lp2164
S'HLT_Rsq0p40_v13'
p2165
a(I540
(I0
I1
I1
I1
I1
tp2166
tp2167
aa(lp2168
S'HLT_RsqMR300_Rsq0p09_MR200_v13'
p2169
a(I541
(I0
I1
I1
I1
I1
tp2170
tp2171
aa(lp2172
S'HLT_RsqMR320_Rsq0p09_MR200_v13'
p2173
a(I542
(I0
I1
I1
I1
I1
tp2174
tp2175
aa(lp2176
S'HLT_RsqMR300_Rsq0p09_MR200_4jet_v13'
p2177
a(I543
(I0
I1
I1
I1
I1
tp2178
tp2179
aa(lp2180
S'HLT_RsqMR320_Rsq0p09_MR200_4jet_v13'
p2181
a(I544
(I0
I1
I1
I1
I1
tp2182
tp2183
aa(lp2184
S'HLT_IsoMu27_LooseChargedIsoPFTau20_Trk1_eta2p1_SingleL1_v3'
p2185
a(I545
(I0
I1
I1
I1
I1
tp2186
tp2187
aa(lp2188
S'HLT_IsoMu27_MediumChargedIsoPFTau20_Trk1_eta2p1_SingleL1_v3'
p2189
a(I546
(I0
I1
I1
I1
I1
tp2190
tp2191
aa(lp2192
S'HLT_IsoMu27_TightChargedIsoPFTau20_Trk1_eta2p1_SingleL1_v3'
p2193
a(I547
(I0
I1
I1
I1
I1
tp2194
tp2195
aa(lp2196
S'HLT_Photon50_R9Id90_HE10_IsoM_EBOnly_PFJetsMJJ300DEta3_PFMET50_v3'
p2197
a(I548
(I0
I1
I1
I1
I1
tp2198
tp2199
aa(lp2200
S'HLT_Photon75_R9Id90_HE10_IsoM_EBOnly_PFJetsMJJ300DEta3_v3'
p2201
a(I549
(I0
I1
I1
I1
I1
tp2202
tp2203
aa(lp2204
S'HLT_Photon75_R9Id90_HE10_IsoM_EBOnly_PFJetsMJJ600DEta3_v3'
p2205
a(I550
(I0
I1
I1
I1
I1
tp2206
tp2207
aa(lp2208
S'HLT_PFMET100_PFMHT100_IDTight_PFHT60_v7'
p2209
a(I551
(I0
I0
I1
I1
I1
tp2210
tp2211
aa(lp2212
S'HLT_PFMETNoMu100_PFMHTNoMu100_IDTight_PFHT60_v7'
p2213
a(I552
(I0
I0
I1
I1
I1
tp2214
tp2215
aa(lp2216
S'HLT_PFMETTypeOne100_PFMHT100_IDTight_PFHT60_v7'
p2217
a(I553
(I0
I0
I1
I1
I1
tp2218
tp2219
aa(lp2220
S'HLT_Mu18_Mu9_SameSign_v3'
p2221
a(I554
(I0
I1
I1
I1
I1
tp2222
tp2223
aa(lp2224
S'HLT_Mu18_Mu9_SameSign_DZ_v3'
p2225
a(I555
(I0
I1
I1
I1
I1
tp2226
tp2227
aa(lp2228
S'HLT_Mu18_Mu9_v3'
p2229
a(I556
(I0
I49
I33
I25
I16
tp2230
tp2231
aa(lp2232
S'HLT_Mu18_Mu9_DZ_v3'
p2233
a(I557
(I0
I50
I33
I25
I17
tp2234
tp2235
aa(lp2236
S'HLT_Mu20_Mu10_SameSign_v3'
p2237
a(I558
(I0
I1
I1
I1
I1
tp2238
tp2239
aa(lp2240
S'HLT_Mu20_Mu10_SameSign_DZ_v3'
p2241
a(I559
(I0
I1
I1
I1
I1
tp2242
tp2243
aa(lp2244
S'HLT_Mu20_Mu10_v3'
p2245
a(I560
(I0
I37
I24
I18
I12
tp2246
tp2247
aa(lp2248
S'HLT_Mu20_Mu10_DZ_v3'
p2249
a(I561
(I0
I38
I26
I19
I13
tp2250
tp2251
aa(lp2252
S'HLT_Mu23_Mu12_SameSign_v3'
p2253
a(I562
(I0
I1
I1
I1
I1
tp2254
tp2255
aa(lp2256
S'HLT_Mu23_Mu12_SameSign_DZ_v3'
p2257
a(I563
(I0
I1
I1
I1
I1
tp2258
tp2259
aa(lp2260
S'HLT_Mu23_Mu12_v3'
p2261
a(I564
(I0
I30
I20
I15
I10
tp2262
tp2263
aa(lp2264
S'HLT_Mu23_Mu12_DZ_v3'
p2265
a(I565
(I0
I24
I16
I12
I8
tp2266
tp2267
aa(lp2268
S'HLT_DoubleMu2_Jpsi_DoubleTkMu0_Phi_v3'
p2269
a(I566
(I0
I1
I1
I1
I1
tp2270
tp2271
aa(lp2272
S'HLT_DoubleMu3_DCA_PFMET50_PFMHT60_v8'
p2273
a(I567
(I0
I1
I1
I1
I1
tp2274
tp2275
aa(lp2276
S'HLT_TripleMu_5_3_3_Mass3p8to60_DCA_v2'
p2277
a(I568
(I0
I1
I1
I1
I1
tp2278
tp2279
aa(lp2280
S'HLT_QuadPFJet98_83_71_15_DoubleBTagCSV_p013_p08_VBF1_v7'
p2281
a(I569
(I0
I1
I1
I1
I1
tp2282
tp2283
aa(lp2284
S'HLT_QuadPFJet103_88_75_15_DoubleBTagCSV_p013_p08_VBF1_v7'
p2285
a(I570
(I0
I1
I1
I1
I1
tp2286
tp2287
aa(lp2288
S'HLT_QuadPFJet105_90_76_15_DoubleBTagCSV_p013_p08_VBF1_v7'
p2289
a(I571
(I0
I1
I1
I1
I1
tp2290
tp2291
aa(lp2292
S'HLT_QuadPFJet111_90_80_15_DoubleBTagCSV_p013_p08_VBF1_v7'
p2293
a(I572
(I0
I1
I1
I1
I1
tp2294
tp2295
aa(lp2296
S'HLT_QuadPFJet98_83_71_15_BTagCSV_p013_VBF2_v7'
p2297
a(I573
(I0
I1
I1
I1
I1
tp2298
tp2299
aa(lp2300
S'HLT_QuadPFJet103_88_75_15_BTagCSV_p013_VBF2_v7'
p2301
a(I574
(I0
I1
I1
I1
I1
tp2302
tp2303
aa(lp2304
S'HLT_QuadPFJet105_88_76_15_BTagCSV_p013_VBF2_v7'
p2305
a(I575
(I0
I1
I1
I1
I1
tp2306
tp2307
aa(lp2308
S'HLT_QuadPFJet111_90_80_15_BTagCSV_p013_VBF2_v7'
p2309
a(I576
(I0
I1
I1
I1
I1
tp2310
tp2311
aa(lp2312
S'HLT_QuadPFJet98_83_71_15_v3'
p2313
a(I577
(I0
I967
I645
I484
I323
tp2314
tp2315
aa(lp2316
S'HLT_QuadPFJet103_88_75_15_v3'
p2317
a(I578
(I0
I600
I400
I300
I200
tp2318
tp2319
aa(lp2320
S'HLT_QuadPFJet105_88_76_15_v3'
p2321
a(I579
(I0
I581
I387
I290
I194
tp2322
tp2323
aa(lp2324
S'HLT_QuadPFJet111_90_80_15_v3'
p2325
a(I580
(I0
I469
I313
I235
I157
tp2326
tp2327
aa(lp2328
S'HLT_AK8PFJet330_TrimMass30_PFAK8BTagCSV_p17_v1'
p2329
a(I581
(I0
I1
I1
I1
I1
tp2330
tp2331
aa(lp2332
S'HLT_AK8PFJet330_TrimMass30_PFAK8BTagCSV_p1_v1'
p2333
a(I582
(I0
I1
I1
I1
I1
tp2334
tp2335
aa(lp2336
S'HLT_AK8PFJet330_TrimMass30_PFAK8BoostedDoubleB_p02_v1'
p2337
a(I583
(I0
I61
I40
I30
I20
tp2338
tp2339
aa(lp2340
S'HLT_Diphoton30_18_PVrealAND_R9Id_AND_IsoCaloId_AND_HE_R9Id_PixelVeto_Mass55_v8'
p2341
a(I584
(I0
I1
I1
I1
I1
tp2342
tp2343
aa(lp2344
S'HLT_Diphoton30_18_PVrealAND_R9Id_AND_IsoCaloId_AND_HE_R9Id_NoPixelVeto_Mass55_v8'
p2345
a(I585
(I0
I1
I1
I1
I1
tp2346
tp2347
aa(lp2348
S'ParkingOutput'
p2349
a(I586
(I10
I10
I10
I10
I10
tp2350
tp2351
aa(lp2352
S'DQMOutput'
p2353
a(I587
(I7
I7
I7
I7
I7
tp2354
tp2355
aatp2356
Rp2357
s.