(dp0
S'OriginalConfig'
p1
ccopy_reg
_reconstructor
p2
(cWMCore.Configuration
Configuration
p3
c__builtin__
object
p4
Ntp5
Rp6
(dp7
S'Site'
p8
g2
(cWMCore.Configuration
ConfigSection
p9
g4
Ntp10
Rp11
(dp12
S'_internal_skipChecks'
p13
I00
sS'_internal_documentation'
p14
S''
p15
sS'_internal_settings'
p16
c__builtin__
set
p17
((lp18
S'storageSite'
p19
atp20
Rp21
sS'_internal_name'
p22
g8
sS'_internal_docstrings'
p23
(dp24
sS'_internal_children'
p25
g17
((lp26
tp27
Rp28
sg19
S'T3_US_FNALLPC'
p29
sS'_internal_parent_ref'
p30
NsbsS'_internal_sections'
p31
(lp32
S'General'
p33
aS'JobType'
p34
aS'Data'
p35
ag8
aS'User'
p36
aS'Debug'
p37
asg36
g2
(g9
g4
Ntp38
Rp39
(dp40
g13
I00
sg14
g15
sg16
g17
((lp41
tp42
Rp43
sg22
g36
sg23
(dp44
sg25
g17
((lp45
tp46
Rp47
sg30
Nsbsg37
g2
(g9
g4
Ntp48
Rp49
(dp50
g13
I00
sg14
g15
sg16
g17
((lp51
tp52
Rp53
sg22
g37
sg23
(dp54
sg25
g17
((lp55
tp56
Rp57
sg30
Nsbsg33
g2
(g9
g4
Ntp58
Rp59
(dp60
S'transferLogs'
p61
I00
sg13
I00
sg14
g15
sg16
g17
((lp62
g61
aS'transferOutputs'
p63
aS'workArea'
p64
aS'requestName'
p65
atp66
Rp67
sg22
g33
sg23
(dp68
sg63
I01
sg25
g17
((lp69
tp70
Rp71
sg65
S'srosenzw_NMSSM_XYH_YToHH_6b_MX_1000_MY_300_sl7_nano_100k'
p72
sg30
Nsg64
g72
sbsg35
g2
(g9
g4
Ntp73
Rp74
(dp75
S'outputDatasetTag'
p76
g72
sg13
I00
sS'unitsPerJob'
p77
I500
sg14
g15
sg16
g17
((lp78
g76
aS'publication'
p79
ag77
aS'splitting'
p80
aS'outLFNDirBase'
p81
aS'totalUnits'
p82
atp83
Rp84
sg22
g35
sg80
S'EventBased'
p85
sg23
(dp86
sg25
g17
((lp87
tp88
Rp89
sg79
I00
sg81
S'/store/group/lpchbb/srosenzw/XY_YToHH/'
p90
sg30
Nsg82
I100000
sbsg34
g2
(g9
g4
Ntp91
Rp92
(dp93
S'numCores'
p94
I2
sg13
I00
sg14
g15
sg16
g17
((lp95
g94
aS'maxMemoryMB'
p96
aS'scriptExe'
p97
aS'pluginName'
p98
aS'psetName'
p99
aS'inputFiles'
p100
atp101
Rp102
sg22
g34
sg97
S'scriptExe.sh'
p103
sg23
(dp104
sg98
S'PrivateMC'
p105
sg25
g17
((lp106
tp107
Rp108
sg99
S'nanoAOD_step_fake.py'
p109
sg30
Nsg100
(lp110
g103
aS'genSim_step.py'
p111
aS'digiPremix_step.py'
p112
aS'hlt_step.py'
p113
aS'recoAOD_step.py'
p114
aS'miniAOD_step.py'
p115
aS'nanoAOD_step.py'
p116
aS'NMSSM_XYH_YToHH_6b_MX_1000_MY_300_slc7_amd64_gcc700_CMSSW_10_6_19_tarball.tar.xz'
p117
asg96
I3500
sbsbsS'voGroup'
p118
g15
sS'Server'
p119
S'cmsweb.cern.ch'
p120
sS'instance'
p121
S'prod'
p122
sS'RequestName'
p123
V220202_235113:srosenzw_crab_srosenzw_NMSSM_XYH_YToHH_6b_MX_1000_MY_300_sl7_nano_100k
p124
sS'voRole'
p125
S'NULL'
p126
sS'Port'
p127
g15
s.