(dp1
S'OriginalConfig'
p2
ccopy_reg
_reconstructor
p3
(cWMCore.Configuration
Configuration
p4
c__builtin__
object
p5
NtRp6
(dp7
S'Site'
p8
g3
(cWMCore.Configuration
ConfigSection
p9
g5
NtRp10
(dp11
S'_internal_skipChecks'
p12
I00
sS'_internal_documentation'
p13
S''
sS'_internal_settings'
p14
c__builtin__
set
p15
((lp16
S'storageSite'
p17
atRp18
sS'_internal_name'
p19
g8
sS'_internal_docstrings'
p20
(dp21
sS'_internal_children'
p22
g15
((ltRp23
sg17
S'T3_US_FNALLPC'
p24
sS'_internal_parent_ref'
p25
NsbsS'_internal_sections'
p26
(lp27
S'General'
p28
aS'JobType'
p29
aS'Data'
p30
ag8
aS'User'
p31
aS'Debug'
p32
asg28
g3
(g9
g5
NtRp33
(dp34
S'transferLogs'
p35
I00
sg12
I00
sg13
S''
sg14
g15
((lp36
g35
aS'transferOutputs'
p37
aS'workArea'
p38
aS'requestName'
p39
atRp40
sg19
g28
sg20
(dp41
sg37
I01
sg22
g15
((ltRp42
sg39
S'srosenzw_NMSSM_XYH_YToHH_6b_MX_700_MY_400_sl7_nano_5M_v4'
p43
sg25
Nsg38
g43
sbsS'_internal_webapps'
p44
(lp45
sg31
g3
(g9
g5
NtRp46
(dp47
g12
I00
sg13
S''
sg14
g15
((ltRp48
sg19
g31
sg20
(dp49
sg22
g15
((ltRp50
sg25
NsbsS'_internal_components'
p51
(lp52
sg32
g3
(g9
g5
NtRp53
(dp54
g12
I00
sg13
S''
sg14
g15
((ltRp55
sg19
g32
sg20
(dp56
sg22
g15
((ltRp57
sg25
Nsbsg30
g3
(g9
g5
NtRp58
(dp59
S'outputDatasetTag'
p60
g43
sg12
I00
sS'unitsPerJob'
p61
I500
sg13
S''
sg14
g15
((lp62
g60
aS'publication'
p63
ag61
aS'splitting'
p64
aS'outLFNDirBase'
p65
aS'totalUnits'
p66
atRp67
sg19
g30
sg64
S'EventBased'
p68
sg20
(dp69
sg22
g15
((ltRp70
sg63
I00
sg65
S'/store/group/lpchbb/srosenzw/XYH_YToHH/'
p71
sg25
Nsg66
I5000000
sbsg29
g3
(g9
g5
NtRp72
(dp73
S'numCores'
p74
I2
sg12
I00
sg13
S''
sg14
g15
((lp75
g74
aS'maxMemoryMB'
p76
aS'scriptExe'
p77
aS'pluginName'
p78
aS'psetName'
p79
aS'inputFiles'
p80
atRp81
sg19
g29
sg77
S'scriptExe.sh'
p82
sg20
(dp83
sg78
S'PrivateMC'
p84
sg22
g15
((ltRp85
sg79
S'nanoAOD_step_fake.py'
p86
sg25
Nsg80
(lp87
g82
aS'genSim_step.py'
p88
aS'digiRaw_step.py'
p89
aS'recoAOD_step.py'
p90
aS'miniAOD_step.py'
p91
aS'nanoAOD_step.py'
p92
aS'pileup.py'
p93
aS'NMSSM_XYH_YToHH_6b_MX_700_MY_400_slc7_amd64_gcc700_CMSSW_10_6_0_tarball2.tar.xz'
p94
asg76
I3500
sbsbsS'voGroup'
p95
S''
sS'Server'
p96
S'cmsweb.cern.ch'
p97
sS'instance'
p98
S'prod'
p99
sS'RequestName'
p100
V210719_194328:srosenzw_crab_srosenzw_NMSSM_XYH_YToHH_6b_MX_700_MY_400_sl7_nano_5M_v4
p101
sS'voRole'
p102
S'NULL'
p103
sS'Port'
p104
S''
s.